; ModuleID = 'FastBoard.cpp'
source_filename = "FastBoard.cpp"
target datalayout = "e-m:e-p270:32:32-p271:32:32-p272:64:64-i64:64-f80:128-n8:16:32:64-S128"
target triple = "x86_64-unknown-linux-gnu"

module asm ".globl _ZSt21ios_base_library_initv"

%"class.boost::array" = type { [2 x i32] }
%"class.boost::array.0" = type { [4 x i32] }
%class.FastBoard = type <{ %"class.boost::array.1", %"class.boost::array.1", i32, i32, i32, %"class.boost::array.2", %"class.boost::array.3", %"class.boost::array.3", %"class.boost::array.3", %"class.boost::array.3", %"class.boost::array.1", [2 x i8], %"class.boost::array.4", %"class.boost::array.5", %"class.boost::array", %"class.boost::array", %"class.std::vector", i32, [4 x i8] }>
%"class.boost::array.2" = type { [441 x i32] }
%"class.boost::array.3" = type { [442 x i16] }
%"class.boost::array.1" = type { [441 x i16] }
%"class.boost::array.4" = type { [4 x i32] }
%"class.boost::array.5" = type { [8 x i32] }
%"class.std::vector" = type { %"struct.std::_Vector_base" }
%"struct.std::_Vector_base" = type { %"struct.std::_Vector_base<int, std::allocator<int>>::_Vector_impl" }
%"struct.std::_Vector_base<int, std::allocator<int>>::_Vector_impl" = type { %"struct.std::_Vector_base<int, std::allocator<int>>::_Vector_impl_data" }
%"struct.std::_Vector_base<int, std::allocator<int>>::_Vector_impl_data" = type { i32*, i32*, i32* }
%"class.std::vector.6" = type { %"struct.std::_Bvector_base" }
%"struct.std::_Bvector_base" = type { %"struct.std::_Bvector_base<std::allocator<bool>>::_Bvector_impl" }
%"struct.std::_Bvector_base<std::allocator<bool>>::_Bvector_impl" = type { %"struct.std::_Bvector_base<std::allocator<bool>>::_Bvector_impl_data" }
%"struct.std::_Bvector_base<std::allocator<bool>>::_Bvector_impl_data" = type { %"struct.std::_Bit_iterator", %"struct.std::_Bit_iterator", i64* }
%"struct.std::_Bit_iterator" = type { %"struct.std::_Bit_iterator_base.base", [4 x i8] }
%"struct.std::_Bit_iterator_base.base" = type <{ i64*, i32 }>
%class.MCOwnerTable = type { %"class.std::vector", i32, %"class.SMP::Mutex" }
%"class.SMP::Mutex" = type { i64 }
%"class.std::__cxx11::basic_string" = type { %"struct.std::__cxx11::basic_string<char>::_Alloc_hider", i64, %union.anon }
%"struct.std::__cxx11::basic_string<char>::_Alloc_hider" = type { i8* }
%union.anon = type { i64, [8 x i8] }
%"class.std::__cxx11::basic_ostringstream" = type { %"class.std::basic_ostream.base", %"class.std::__cxx11::basic_stringbuf", %"class.std::basic_ios" }
%"class.std::basic_ostream.base" = type { i32 (...)** }
%"class.std::__cxx11::basic_stringbuf" = type { %"class.std::basic_streambuf", i32, %"class.std::__cxx11::basic_string" }
%"class.std::basic_streambuf" = type { i32 (...)**, i8*, i8*, i8*, i8*, i8*, i8*, %"class.std::locale" }
%"class.std::locale" = type { %"class.std::locale::_Impl"* }
%"class.std::locale::_Impl" = type { i32, %"class.std::locale::facet"**, i64, %"class.std::locale::facet"**, i8** }
%"class.std::locale::facet" = type <{ i32 (...)**, i32, [4 x i8] }>
%"class.std::basic_ios" = type { %"class.std::ios_base", %"class.std::basic_ostream"*, i8, i8, %"class.std::basic_streambuf"*, %"class.std::ctype"*, %"class.std::num_put"*, %"class.std::num_get"* }
%"class.std::ios_base" = type { i32 (...)**, i64, i64, i32, i32, i32, %"struct.std::ios_base::_Callback_list"*, %"struct.std::ios_base::_Words", [8 x %"struct.std::ios_base::_Words"], i32, %"struct.std::ios_base::_Words"*, %"class.std::locale" }
%"struct.std::ios_base::_Callback_list" = type { %"struct.std::ios_base::_Callback_list"*, void (i32, %"class.std::ios_base"*, i32)*, i32, i32 }
%"struct.std::ios_base::_Words" = type { i8*, i64 }
%"class.std::basic_ostream" = type { i32 (...)**, %"class.std::basic_ios" }
%"class.std::ctype" = type <{ %"class.std::locale::facet.base", [4 x i8], %struct.__locale_struct*, i8, [7 x i8], i32*, i32*, i16*, i8, [256 x i8], [256 x i8], i8, [6 x i8] }>
%"class.std::locale::facet.base" = type <{ i32 (...)**, i32 }>
%struct.__locale_struct = type { [13 x %struct.__locale_data*], i16*, i32*, i32*, [13 x i8*] }
%struct.__locale_data = type opaque
%"class.std::num_put" = type { %"class.std::locale::facet.base", [4 x i8] }
%"class.std::num_get" = type { %"class.std::locale::facet.base", [4 x i8] }
%"class.boost::array.16" = type { [24 x i32] }
%"class.boost::array.17" = type { [3 x i32] }

$_ZNSt6vectorIbSaIbEEaSERKS1_ = comdat any

$_ZNSt6vectorIiSaIiEEaSERKS1_ = comdat any

$_ZN9FastBoard20add_string_libertiesILi3EEEviRN5boost5arrayIiXT_EEERi = comdat any

$_ZN9FastBoard20add_string_libertiesILi2EEEviRN5boost5arrayIiXT_EEERi = comdat any

$_ZNSt6vectorIiSaIiEE17_M_realloc_insertIJRKiEEEvN9__gnu_cxx17__normal_iteratorIPiS1_EEDpOT_ = comdat any

$_ZSt16__introsort_loopIN9__gnu_cxx17__normal_iteratorIPiSt6vectorIiSaIiEEEElNS0_5__ops15_Iter_less_iterEEvT_S9_T0_T1_ = comdat any

$_ZSt22__final_insertion_sortIN9__gnu_cxx17__normal_iteratorIPiSt6vectorIiSaIiEEEENS0_5__ops15_Iter_less_iterEEvT_S9_T0_ = comdat any

@_ZN9FastBoard9s_eyemaskE = dso_local local_unnamed_addr constant %"class.boost::array" { [2 x i32] [i32 4, i32 64] }, align 4
@_ZN9FastBoard9s_cinvertE = dso_local local_unnamed_addr constant %"class.boost::array.0" { [4 x i32] [i32 1, i32 0, i32 2, i32 3] }, align 4
@.str = private unnamed_addr constant [27 x i8] c"x >= 0 && x < MAXBOARDSIZE\00", align 1
@.str.1 = private unnamed_addr constant [14 x i8] c"FastBoard.cpp\00", align 1
@__PRETTY_FUNCTION__._ZN9FastBoard10get_vertexEii = private unnamed_addr constant [36 x i8] c"int FastBoard::get_vertex(int, int)\00", align 1
@.str.2 = private unnamed_addr constant [27 x i8] c"y >= 0 && y < MAXBOARDSIZE\00", align 1
@.str.3 = private unnamed_addr constant [26 x i8] c"x >= 0 && x < m_boardsize\00", align 1
@.str.4 = private unnamed_addr constant [26 x i8] c"y >= 0 && y < m_boardsize\00", align 1
@.str.5 = private unnamed_addr constant [32 x i8] c"vertex >= 0 && vertex < m_maxsq\00", align 1
@.str.6 = private unnamed_addr constant [30 x i8] c"vertex >= 0 && vertex < MAXSQ\00", align 1
@__PRETTY_FUNCTION__._ZN9FastBoard10get_squareEi = private unnamed_addr constant [47 x i8] c"FastBoard::square_t FastBoard::get_square(int)\00", align 1
@__PRETTY_FUNCTION__._ZN9FastBoard10set_squareEiNS_8square_tE = private unnamed_addr constant [53 x i8] c"void FastBoard::set_square(int, FastBoard::square_t)\00", align 1
@.str.7 = private unnamed_addr constant [37 x i8] c"content >= BLACK && content <= INVAL\00", align 1
@.str.8 = private unnamed_addr constant [39 x i8] c"c == WHITE || c == BLACK || c == EMPTY\00", align 1
@__PRETTY_FUNCTION__._ZN9FastBoard16count_neighboursEii = private unnamed_addr constant [54 x i8] c"int FastBoard::count_neighbours(const int, const int)\00", align 1
@.str.9 = private unnamed_addr constant [51 x i8] c"color == WHITE || color == BLACK || color == EMPTY\00", align 1
@__PRETTY_FUNCTION__._ZN9FastBoard13add_neighbourEii = private unnamed_addr constant [52 x i8] c"void FastBoard::add_neighbour(const int, const int)\00", align 1
@__PRETTY_FUNCTION__._ZN9FastBoard16remove_neighbourEii = private unnamed_addr constant [55 x i8] c"void FastBoard::remove_neighbour(const int, const int)\00", align 1
@__PRETTY_FUNCTION__._ZN9FastBoard18remove_string_fastEi = private unnamed_addr constant [39 x i8] c"int FastBoard::remove_string_fast(int)\00", align 1
@.str.10 = private unnamed_addr constant [23 x i8] c"m_square[pos] == color\00", align 1
@.str.11 = private unnamed_addr constant [21 x i8] c"m_square[i] == EMPTY\00", align 1
@__PRETTY_FUNCTION__._ZN9FastBoard14final_mc_scoreEf = private unnamed_addr constant [39 x i8] c"float FastBoard::final_mc_score(float)\00", align 1
@.str.12 = private unnamed_addr constant [3 x i8] c"X \00", align 1
@.str.13 = private unnamed_addr constant [3 x i8] c"w \00", align 1
@.str.14 = private unnamed_addr constant [3 x i8] c"x \00", align 1
@.str.15 = private unnamed_addr constant [3 x i8] c"b \00", align 1
@.str.16 = private unnamed_addr constant [3 x i8] c"O \00", align 1
@.str.17 = private unnamed_addr constant [3 x i8] c"o \00", align 1
@.str.18 = private unnamed_addr constant [3 x i8] c". \00", align 1
@.str.19 = private unnamed_addr constant [2 x i8] c"\0A\00", align 1
@.str.20 = private unnamed_addr constant [5 x i8] c"\0A   \00", align 1
@.str.21 = private unnamed_addr constant [4 x i8] c"%c \00", align 1
@.str.22 = private unnamed_addr constant [4 x i8] c"%2d\00", align 1
@.str.23 = private unnamed_addr constant [2 x i8] c"(\00", align 1
@.str.24 = private unnamed_addr constant [2 x i8] c" \00", align 1
@.str.25 = private unnamed_addr constant [2 x i8] c"O\00", align 1
@.str.26 = private unnamed_addr constant [2 x i8] c"X\00", align 1
@.str.27 = private unnamed_addr constant [2 x i8] c"+\00", align 1
@.str.28 = private unnamed_addr constant [2 x i8] c".\00", align 1
@.str.29 = private unnamed_addr constant [2 x i8] c")\00", align 1
@.str.30 = private unnamed_addr constant [5 x i8] c"%2d\0A\00", align 1
@.str.31 = private unnamed_addr constant [4 x i8] c"   \00", align 1
@.str.32 = private unnamed_addr constant [3 x i8] c"\0A\0A\00", align 1
@.str.33 = private unnamed_addr constant [4 x i8] c"%1d\00", align 1
@.str.34 = private unnamed_addr constant [3 x i8] c"+ \00", align 1
@.str.35 = private unnamed_addr constant [28 x i8] c"ip != MAXSQ && aip != MAXSQ\00", align 1
@__PRETTY_FUNCTION__._ZN9FastBoard13merge_stringsEii = private unnamed_addr constant [52 x i8] c"void FastBoard::merge_strings(const int, const int)\00", align 1
@.str.36 = private unnamed_addr constant [25 x i8] c"ai >= 0 && ai <= m_maxsq\00", align 1
@__PRETTY_FUNCTION__._ZN9FastBoard16update_board_eyeEii = private unnamed_addr constant [54 x i8] c"int FastBoard::update_board_eye(const int, const int)\00", align 1
@__PRETTY_FUNCTION__._ZN9FastBoard17update_board_fastEii = private unnamed_addr constant [55 x i8] c"int FastBoard::update_board_fast(const int, const int)\00", align 1
@.str.37 = private unnamed_addr constant [33 x i8] c"color == WHITE || color == BLACK\00", align 1
@.str.39 = private unnamed_addr constant [88 x i8] c"move == FastBoard::PASS || move == FastBoard::RESIGN || (row >= 0 && row < m_boardsize)\00", align 1
@__PRETTY_FUNCTION__._ZN9FastBoard12move_to_textB5cxx11Ei = private unnamed_addr constant [41 x i8] c"std::string FastBoard::move_to_text(int)\00", align 1
@.str.40 = private unnamed_addr constant [94 x i8] c"move == FastBoard::PASS || move == FastBoard::RESIGN || (column >= 0 && column < m_boardsize)\00", align 1
@.str.41 = private unnamed_addr constant [5 x i8] c"pass\00", align 1
@.str.42 = private unnamed_addr constant [7 x i8] c"resign\00", align 1
@.str.43 = private unnamed_addr constant [6 x i8] c"error\00", align 1
@__PRETTY_FUNCTION__._ZN9FastBoard16move_to_text_sgfB5cxx11Ei = private unnamed_addr constant [45 x i8] c"std::string FastBoard::move_to_text_sgf(int)\00", align 1
@.str.44 = private unnamed_addr constant [3 x i8] c"tt\00", align 1
@.str.45 = private unnamed_addr constant [31 x i8] c"side == WHITE || side == BLACK\00", align 1
@__PRETTY_FUNCTION__._ZN9FastBoard13get_prisonersEi = private unnamed_addr constant [34 x i8] c"int FastBoard::get_prisoners(int)\00", align 1
@.str.46 = private unnamed_addr constant [55 x i8] c"m_square[vertex] == WHITE || m_square[vertex] == BLACK\00", align 1
@__PRETTY_FUNCTION__._ZN9FastBoard11get_groupidEi = private unnamed_addr constant [32 x i8] c"int FastBoard::get_groupid(int)\00", align 1
@.str.47 = private unnamed_addr constant [47 x i8] c"m_parent[vertex] == m_parent[m_parent[vertex]]\00", align 1
@.str.48 = private unnamed_addr constant [37 x i8] c"m_square[newpos] == m_square[vertex]\00", align 1
@__PRETTY_FUNCTION__._ZN9FastBoard17get_string_stonesEi = private unnamed_addr constant [51 x i8] c"std::vector<int> FastBoard::get_string_stones(int)\00", align 1
@.str.49 = private unnamed_addr constant [25 x i8] c"m_square[vertex] < EMPTY\00", align 1
@__PRETTY_FUNCTION__._ZN9FastBoard8in_atariEi = private unnamed_addr constant [29 x i8] c"int FastBoard::in_atari(int)\00", align 1
@.str.50 = private unnamed_addr constant [6 x i8] c"false\00", align 1
@.str.51 = private unnamed_addr constant [24 x i8] c"m_square[pos] == scolor\00", align 1
@__PRETTY_FUNCTION__._ZN9FastBoard15kill_neighboursEiRN5boost5arrayIiLm24EEERi = private unnamed_addr constant [69 x i8] c"void FastBoard::kill_neighbours(int, FastBoard::movelist_t &, int &)\00", align 1
@.str.52 = private unnamed_addr constant [25 x i8] c"m_square[atari] == EMPTY\00", align 1
@.str.53 = private unnamed_addr constant [39 x i8] c"get_square(vertex) == FastBoard::EMPTY\00", align 1
@__PRETTY_FUNCTION__._ZN9FastBoard10self_atariEii = private unnamed_addr constant [37 x i8] c"bool FastBoard::self_atari(int, int)\00", align 1
@.str.54 = private unnamed_addr constant [26 x i8] c"m_square[vertex] == EMPTY\00", align 1
@__PRETTY_FUNCTION__._ZN9FastBoard12capture_sizeEii = private unnamed_addr constant [38 x i8] c"int FastBoard::capture_size(int, int)\00", align 1
@__PRETTY_FUNCTION__._ZN9FastBoard11string_sizeEi = private unnamed_addr constant [32 x i8] c"int FastBoard::string_size(int)\00", align 1
@.str.55 = private unnamed_addr constant [30 x i8] c"x >= 0 && x < get_boardsize()\00", align 1
@__PRETTY_FUNCTION__._ZN9FastBoard6get_xyEi = private unnamed_addr constant [43 x i8] c"std::pair<int, int> FastBoard::get_xy(int)\00", align 1
@.str.56 = private unnamed_addr constant [30 x i8] c"y >= 0 && y < get_boardsize()\00", align 1
@.str.57 = private unnamed_addr constant [8 x i8] c"lc == 2\00", align 1
@__PRETTY_FUNCTION__._ZN9FastBoard19check_losing_ladderEiii = private unnamed_addr constant [63 x i8] c"bool FastBoard::check_losing_ladder(const int, const int, int)\00", align 1
@__PRETTY_FUNCTION__._ZN9FastBoard16predict_is_aliveEii = private unnamed_addr constant [54 x i8] c"int FastBoard::predict_is_alive(const int, const int)\00", align 1
@__PRETTY_FUNCTION__._ZN9FastBoard13augment_chainERSt6vectorIiSaIiEEi = private unnamed_addr constant [55 x i8] c"void FastBoard::augment_chain(std::vector<int> &, int)\00", align 1
@.str.58 = private unnamed_addr constant [30 x i8] c"m_square[vtxlist[i]] == color\00", align 1
@__PRETTY_FUNCTION__._ZN9FastBoard18get_nearby_enemiesERSt6vectorIiSaIiEE = private unnamed_addr constant [67 x i8] c"std::vector<int> FastBoard::get_nearby_enemies(std::vector<int> &)\00", align 1
@.str.59 = private unnamed_addr constant [29 x i8] c"groupid == m_parent[groupid]\00", align 1
@__PRETTY_FUNCTION__._ZN9FastBoard12predict_killEii = private unnamed_addr constant [51 x i8] c"bool FastBoard::predict_kill(const int, const int)\00", align 1
@.str.61 = private unnamed_addr constant [24 x i8] c"i < N && \22out of range\22\00", align 1
@.str.62 = private unnamed_addr constant [18 x i8] c"./boost/array.hpp\00", align 1
@__PRETTY_FUNCTION__._ZN5boost5arrayIN9FastBoard8square_tELm441EEixEm = private unnamed_addr constant [135 x i8] c"boost::array::reference boost::array<FastBoard::square_t, 441>::operator[](boost::array::size_type) [T = FastBoard::square_t, N = 441]\00", align 1
@__PRETTY_FUNCTION__._ZN5boost5arrayIiLm2EEixEm = private unnamed_addr constant [99 x i8] c"boost::array::reference boost::array<int, 2>::operator[](boost::array::size_type) [T = int, N = 2]\00", align 1
@__PRETTY_FUNCTION__._ZN5boost5arrayIiLm4EEixEm = private unnamed_addr constant [99 x i8] c"boost::array::reference boost::array<int, 4>::operator[](boost::array::size_type) [T = int, N = 4]\00", align 1
@__PRETTY_FUNCTION__._ZN5boost5arrayIiLm8EEixEm = private unnamed_addr constant [99 x i8] c"boost::array::reference boost::array<int, 8>::operator[](boost::array::size_type) [T = int, N = 8]\00", align 1
@__PRETTY_FUNCTION__._ZN5boost5arrayItLm441EEixEm = private unnamed_addr constant [125 x i8] c"boost::array::reference boost::array<unsigned short, 441>::operator[](boost::array::size_type) [T = unsigned short, N = 441]\00", align 1
@__PRETTY_FUNCTION__._ZN5boost5arrayItLm442EEixEm = private unnamed_addr constant [125 x i8] c"boost::array::reference boost::array<unsigned short, 442>::operator[](boost::array::size_type) [T = unsigned short, N = 442]\00", align 1
@__PRETTY_FUNCTION__._ZNK5boost5arrayIiLm2EEixEm = private unnamed_addr constant [111 x i8] c"boost::array::const_reference boost::array<int, 2>::operator[](boost::array::size_type) const [T = int, N = 2]\00", align 1
@.str.63 = private unnamed_addr constant [49 x i8] c"cannot create std::vector larger than max_size()\00", align 1
@_ZTTNSt7__cxx1119basic_ostringstreamIcSt11char_traitsIcESaIcEEE = external unnamed_addr constant [4 x i8*], align 8
@_ZTVNSt7__cxx1115basic_stringbufIcSt11char_traitsIcESaIcEEE = external dso_local unnamed_addr constant { [16 x i8*] }, align 8
@_ZTVSt15basic_streambufIcSt11char_traitsIcEE = external dso_local unnamed_addr constant { [16 x i8*] }, align 8
@.str.67 = private unnamed_addr constant [26 x i8] c"vector::_M_realloc_insert\00", align 1
@.str.68 = private unnamed_addr constant [21 x i8] c"basic_string::append\00", align 1
@__PRETTY_FUNCTION__._ZN5boost5arrayIiLm24EEixEm = private unnamed_addr constant [101 x i8] c"boost::array::reference boost::array<int, 24>::operator[](boost::array::size_type) [T = int, N = 24]\00", align 1
@__PRETTY_FUNCTION__._ZN5boost5arrayIiLm3EEixEm = private unnamed_addr constant [99 x i8] c"boost::array::reference boost::array<int, 3>::operator[](boost::array::size_type) [T = int, N = 3]\00", align 1
@__PRETTY_FUNCTION__._ZN9FastBoard20add_string_libertiesILi3EEEviRN5boost5arrayIiXT_EEERi = private unnamed_addr constant [84 x i8] c"void FastBoard::add_string_liberties(int, std::tr1::array<int, N> &, int &) [N = 3]\00", align 1
@__PRETTY_FUNCTION__._ZNK5boost5arrayIN9FastBoard8square_tELm4EEixEm = private unnamed_addr constant [143 x i8] c"boost::array::const_reference boost::array<FastBoard::square_t, 4>::operator[](boost::array::size_type) const [T = FastBoard::square_t, N = 4]\00", align 1
@__PRETTY_FUNCTION__._ZN9FastBoard20add_string_libertiesILi2EEEviRN5boost5arrayIiXT_EEERi = private unnamed_addr constant [84 x i8] c"void FastBoard::add_string_liberties(int, std::tr1::array<int, N> &, int &) [N = 2]\00", align 1

; Function Attrs: mustprogress nofree norecurse nosync nounwind readonly uwtable willreturn
define dso_local i32 @_ZN9FastBoard13get_boardsizeEv(%class.FastBoard* nocapture nonnull readonly align 8 dereferenceable(8052) %this) local_unnamed_addr #0 align 2 {
entry:
  %m_boardsize = getelementptr inbounds %class.FastBoard, %class.FastBoard* %this, i64 0, i32 17, !sourceFile !3, !mergedLineNum !4
  %0 = load i32, i32* %m_boardsize, align 8, !tbaa !5, !sourceFile !3, !mergedLineNum !4
  ret i32 %0, !sourceFile !3, !mergedLineNum !4
}

; Function Attrs: mustprogress nounwind uwtable
define dso_local i32 @_ZN9FastBoard10get_vertexEii(%class.FastBoard* nocapture nonnull readonly align 8 dereferenceable(8052) %this, i32 %x, i32 %y) local_unnamed_addr #1 align 2 {
entry:
  %0 = icmp ult i32 %x, 19
  br i1 %0, label %cond.end, label %cond.false, !sourceFile !3, !mergedLineNum !4

cond.false:                                       ; preds = %entry
  tail call void @__assert_fail(i8* getelementptr inbounds ([27 x i8], [27 x i8]* @.str, i64 0, i64 0), i8* getelementptr inbounds ([14 x i8], [14 x i8]* @.str.1, i64 0, i64 0), i32 32, i8* getelementptr inbounds ([36 x i8], [36 x i8]* @__PRETTY_FUNCTION__._ZN9FastBoard10get_vertexEii, i64 0, i64 0)) #19, !sourceFile !3, !mergedLineNum !4
  unreachable, !sourceFile !3, !mergedLineNum !4

cond.end:                                         ; preds = %entry
  %1 = icmp ult i32 %y, 19
  br i1 %1, label %land.rhs11, label %cond.false8, !sourceFile !3, !mergedLineNum !4

cond.false8:                                      ; preds = %cond.end
  tail call void @__assert_fail(i8* getelementptr inbounds ([27 x i8], [27 x i8]* @.str.2, i64 0, i64 0), i8* getelementptr inbounds ([14 x i8], [14 x i8]* @.str.1, i64 0, i64 0), i32 33, i8* getelementptr inbounds ([36 x i8], [36 x i8]* @__PRETTY_FUNCTION__._ZN9FastBoard10get_vertexEii, i64 0, i64 0)) #19, !sourceFile !3, !mergedLineNum !4
  unreachable, !sourceFile !3, !mergedLineNum !4

land.rhs11:                                       ; preds = %cond.end
  %m_boardsize = getelementptr inbounds %class.FastBoard, %class.FastBoard* %this, i64 0, i32 17, !sourceFile !3, !mergedLineNum !4
  %2 = load i32, i32* %m_boardsize, align 8, !tbaa !5, !sourceFile !3, !mergedLineNum !4
  %cmp12 = icmp sgt i32 %2, %x, !sourceFile !3, !mergedLineNum !4
  br i1 %cmp12, label %land.rhs18, label %cond.false15, !sourceFile !3, !mergedLineNum !4

cond.false15:                                     ; preds = %land.rhs11
  tail call void @__assert_fail(i8* getelementptr inbounds ([26 x i8], [26 x i8]* @.str.3, i64 0, i64 0), i8* getelementptr inbounds ([14 x i8], [14 x i8]* @.str.1, i64 0, i64 0), i32 34, i8* getelementptr inbounds ([36 x i8], [36 x i8]* @__PRETTY_FUNCTION__._ZN9FastBoard10get_vertexEii, i64 0, i64 0)) #19, !sourceFile !3, !mergedLineNum !4
  unreachable, !sourceFile !3, !mergedLineNum !4

land.rhs18:                                       ; preds = %land.rhs11
  %cmp20 = icmp sgt i32 %2, %y, !sourceFile !3, !mergedLineNum !4
  br i1 %cmp20, label %cond.end24, label %cond.false23, !sourceFile !3, !mergedLineNum !4

cond.false23:                                     ; preds = %land.rhs18
  tail call void @__assert_fail(i8* getelementptr inbounds ([26 x i8], [26 x i8]* @.str.4, i64 0, i64 0), i8* getelementptr inbounds ([14 x i8], [14 x i8]* @.str.1, i64 0, i64 0), i32 35, i8* getelementptr inbounds ([36 x i8], [36 x i8]* @__PRETTY_FUNCTION__._ZN9FastBoard10get_vertexEii, i64 0, i64 0)) #19, !sourceFile !3, !mergedLineNum !4
  unreachable, !sourceFile !3, !mergedLineNum !4

cond.end24:                                       ; preds = %land.rhs18
  %add = add nuw nsw i32 %y, 1, !sourceFile !3, !mergedLineNum !4
  %add25 = add nsw i32 %2, 2, !sourceFile !3, !mergedLineNum !4
  %mul = mul nsw i32 %add25, %add, !sourceFile !3, !mergedLineNum !4
  %add26 = add nuw nsw i32 %x, 1, !sourceFile !3, !mergedLineNum !4
  %add27 = add nsw i32 %add26, %mul, !sourceFile !3, !mergedLineNum !4
  %cmp28 = icmp sgt i32 %add27, -1
  br i1 %cmp28, label %land.rhs29, label %cond.false33, !sourceFile !3, !mergedLineNum !4

land.rhs29:                                       ; preds = %cond.end24
  %m_maxsq = getelementptr inbounds %class.FastBoard, %class.FastBoard* %this, i64 0, i32 4, !sourceFile !3, !mergedLineNum !4
  %3 = load i32, i32* %m_maxsq, align 4, !tbaa !17, !sourceFile !3, !mergedLineNum !4
  %cmp30 = icmp slt i32 %add27, %3, !sourceFile !3, !mergedLineNum !4
  br i1 %cmp30, label %cond.end34, label %cond.false33, !sourceFile !3, !mergedLineNum !4

cond.false33:                                     ; preds = %cond.end24, %land.rhs29
  tail call void @__assert_fail(i8* getelementptr inbounds ([32 x i8], [32 x i8]* @.str.5, i64 0, i64 0), i8* getelementptr inbounds ([14 x i8], [14 x i8]* @.str.1, i64 0, i64 0), i32 39, i8* getelementptr inbounds ([36 x i8], [36 x i8]* @__PRETTY_FUNCTION__._ZN9FastBoard10get_vertexEii, i64 0, i64 0)) #19, !sourceFile !3, !mergedLineNum !4
  unreachable, !sourceFile !3, !mergedLineNum !4

cond.end34:                                       ; preds = %land.rhs29
  ret i32 %add27, !sourceFile !3, !mergedLineNum !4
}

; Function Attrs: noreturn nounwind
declare dso_local void @__assert_fail(i8*, i8*, i32, i8*) local_unnamed_addr #2

; Function Attrs: argmemonly mustprogress nofree nosync nounwind willreturn
declare void @llvm.lifetime.start.p0i8(i64 immarg, i8* nocapture) #3

; Function Attrs: argmemonly mustprogress nofree nosync nounwind willreturn
declare void @llvm.lifetime.end.p0i8(i64 immarg, i8* nocapture) #3

; Function Attrs: mustprogress nounwind uwtable
define dso_local i32 @_ZN9FastBoard10get_squareEi(%class.FastBoard* nocapture nonnull readonly align 8 dereferenceable(8052) %this, i32 %vertex) local_unnamed_addr #1 align 2 {
entry:
  %0 = icmp ult i32 %vertex, 441
  br i1 %0, label %land.rhs4, label %cond.false, !sourceFile !3, !mergedLineNum !4

cond.false:                                       ; preds = %entry
  tail call void @__assert_fail(i8* getelementptr inbounds ([30 x i8], [30 x i8]* @.str.6, i64 0, i64 0), i8* getelementptr inbounds ([14 x i8], [14 x i8]* @.str.1, i64 0, i64 0), i32 45, i8* getelementptr inbounds ([47 x i8], [47 x i8]* @__PRETTY_FUNCTION__._ZN9FastBoard10get_squareEi, i64 0, i64 0)) #19, !sourceFile !3, !mergedLineNum !4
  unreachable, !sourceFile !3, !mergedLineNum !4

land.rhs4:                                        ; preds = %entry
  %m_maxsq = getelementptr inbounds %class.FastBoard, %class.FastBoard* %this, i64 0, i32 4, !sourceFile !3, !mergedLineNum !4
  %1 = load i32, i32* %m_maxsq, align 4, !tbaa !17, !sourceFile !3, !mergedLineNum !4
  %cmp5 = icmp sgt i32 %1, %vertex, !sourceFile !3, !mergedLineNum !4
  br i1 %cmp5, label %cond.end9, label %cond.false8, !sourceFile !3, !mergedLineNum !4

cond.false8:                                      ; preds = %land.rhs4
  tail call void @__assert_fail(i8* getelementptr inbounds ([32 x i8], [32 x i8]* @.str.5, i64 0, i64 0), i8* getelementptr inbounds ([14 x i8], [14 x i8]* @.str.1, i64 0, i64 0), i32 46, i8* getelementptr inbounds ([47 x i8], [47 x i8]* @__PRETTY_FUNCTION__._ZN9FastBoard10get_squareEi, i64 0, i64 0)) #19, !sourceFile !3, !mergedLineNum !4
  unreachable, !sourceFile !3, !mergedLineNum !4

cond.end9:                                        ; preds = %land.rhs4
  %conv14 = zext i32 %vertex to i64
  %arrayidx.i = getelementptr inbounds %class.FastBoard, %class.FastBoard* %this, i64 0, i32 5, i32 0, i64 %conv14
  %2 = load i32, i32* %arrayidx.i, align 4, !tbaa !18, !sourceFile !3, !mergedLineNum !4
  ret i32 %2, !sourceFile !3, !mergedLineNum !4
}

; Function Attrs: mustprogress nounwind uwtable
define dso_local void @_ZN9FastBoard10set_squareEiNS_8square_tE(%class.FastBoard* nocapture nonnull align 8 dereferenceable(8052) %this, i32 %vertex, i32 %content) local_unnamed_addr #1 align 2 {
entry:
  %0 = icmp ult i32 %vertex, 441
  br i1 %0, label %land.rhs4, label %cond.false, !sourceFile !3, !mergedLineNum !4

cond.false:                                       ; preds = %entry
  tail call void @__assert_fail(i8* getelementptr inbounds ([30 x i8], [30 x i8]* @.str.6, i64 0, i64 0), i8* getelementptr inbounds ([14 x i8], [14 x i8]* @.str.1, i64 0, i64 0), i32 52, i8* getelementptr inbounds ([53 x i8], [53 x i8]* @__PRETTY_FUNCTION__._ZN9FastBoard10set_squareEiNS_8square_tE, i64 0, i64 0)) #19, !sourceFile !3, !mergedLineNum !4
  unreachable, !sourceFile !3, !mergedLineNum !4

land.rhs4:                                        ; preds = %entry
  %m_maxsq = getelementptr inbounds %class.FastBoard, %class.FastBoard* %this, i64 0, i32 4, !sourceFile !3, !mergedLineNum !4
  %1 = load i32, i32* %m_maxsq, align 4, !tbaa !17, !sourceFile !3, !mergedLineNum !4
  %cmp5 = icmp sgt i32 %1, %vertex, !sourceFile !3, !mergedLineNum !4
  br i1 %cmp5, label %cond.end9, label %cond.false8, !sourceFile !3, !mergedLineNum !4

cond.false8:                                      ; preds = %land.rhs4
  tail call void @__assert_fail(i8* getelementptr inbounds ([32 x i8], [32 x i8]* @.str.5, i64 0, i64 0), i8* getelementptr inbounds ([14 x i8], [14 x i8]* @.str.1, i64 0, i64 0), i32 53, i8* getelementptr inbounds ([53 x i8], [53 x i8]* @__PRETTY_FUNCTION__._ZN9FastBoard10set_squareEiNS_8square_tE, i64 0, i64 0)) #19, !sourceFile !3, !mergedLineNum !4
  unreachable, !sourceFile !3, !mergedLineNum !4

cond.end9:                                        ; preds = %land.rhs4
  %2 = icmp ult i32 %content, 4
  br i1 %2, label %cond.end16, label %cond.false15, !sourceFile !3, !mergedLineNum !4

cond.false15:                                     ; preds = %cond.end9
  tail call void @__assert_fail(i8* getelementptr inbounds ([37 x i8], [37 x i8]* @.str.7, i64 0, i64 0), i8* getelementptr inbounds ([14 x i8], [14 x i8]* @.str.1, i64 0, i64 0), i32 54, i8* getelementptr inbounds ([53 x i8], [53 x i8]* @__PRETTY_FUNCTION__._ZN9FastBoard10set_squareEiNS_8square_tE, i64 0, i64 0)) #19, !sourceFile !3, !mergedLineNum !4
  unreachable, !sourceFile !3, !mergedLineNum !4

cond.end16:                                       ; preds = %cond.end9
  %conv23 = zext i32 %vertex to i64
  %arrayidx.i = getelementptr inbounds %class.FastBoard, %class.FastBoard* %this, i64 0, i32 5, i32 0, i64 %conv23
  store i32 %content, i32* %arrayidx.i, align 4, !tbaa !18, !sourceFile !3, !mergedLineNum !4
  ret void, !sourceFile !3, !mergedLineNum !4
}

; Function Attrs: mustprogress nounwind uwtable
define dso_local i32 @_ZN9FastBoard10get_squareEii(%class.FastBoard* nocapture nonnull readonly align 8 dereferenceable(8052) %this, i32 %x, i32 %y) local_unnamed_addr #1 align 2 {
entry:
  %call = tail call i32 @_ZN9FastBoard10get_vertexEii(%class.FastBoard* nonnull align 8 dereferenceable(8052) %this, i32 %x, i32 %y), !sourceFile !3, !mergedLineNum !4
  %0 = icmp ult i32 %call, 441
  br i1 %0, label %land.rhs4.i, label %cond.false.i, !sourceFile !3, !mergedLineNum !4

cond.false.i:                                     ; preds = %entry
  tail call void @__assert_fail(i8* getelementptr inbounds ([30 x i8], [30 x i8]* @.str.6, i64 0, i64 0), i8* getelementptr inbounds ([14 x i8], [14 x i8]* @.str.1, i64 0, i64 0), i32 45, i8* getelementptr inbounds ([47 x i8], [47 x i8]* @__PRETTY_FUNCTION__._ZN9FastBoard10get_squareEi, i64 0, i64 0)) #19, !sourceFile !3, !mergedLineNum !4
  unreachable, !sourceFile !3, !mergedLineNum !4

land.rhs4.i:                                      ; preds = %entry
  %m_maxsq.i = getelementptr inbounds %class.FastBoard, %class.FastBoard* %this, i64 0, i32 4, !sourceFile !3, !mergedLineNum !4
  %1 = load i32, i32* %m_maxsq.i, align 4, !tbaa !17, !sourceFile !3, !mergedLineNum !4
  %cmp5.i = icmp sgt i32 %1, %call, !sourceFile !3, !mergedLineNum !4
  br i1 %cmp5.i, label %_ZN9FastBoard10get_squareEi.exit, label %cond.false8.i, !sourceFile !3, !mergedLineNum !4

cond.false8.i:                                    ; preds = %land.rhs4.i
  tail call void @__assert_fail(i8* getelementptr inbounds ([32 x i8], [32 x i8]* @.str.5, i64 0, i64 0), i8* getelementptr inbounds ([14 x i8], [14 x i8]* @.str.1, i64 0, i64 0), i32 46, i8* getelementptr inbounds ([47 x i8], [47 x i8]* @__PRETTY_FUNCTION__._ZN9FastBoard10get_squareEi, i64 0, i64 0)) #19, !sourceFile !3, !mergedLineNum !4
  unreachable, !sourceFile !3, !mergedLineNum !4

_ZN9FastBoard10get_squareEi.exit:                 ; preds = %land.rhs4.i
  %conv14.i = zext i32 %call to i64
  %arrayidx.i.i = getelementptr inbounds %class.FastBoard, %class.FastBoard* %this, i64 0, i32 5, i32 0, i64 %conv14.i
  %2 = load i32, i32* %arrayidx.i.i, align 4, !tbaa !18, !sourceFile !3, !mergedLineNum !4
  ret i32 %2, !sourceFile !3, !mergedLineNum !4
}

; Function Attrs: mustprogress nounwind uwtable
define dso_local void @_ZN9FastBoard10set_squareEiiNS_8square_tE(%class.FastBoard* nocapture nonnull align 8 dereferenceable(8052) %this, i32 %x, i32 %y, i32 %content) local_unnamed_addr #1 align 2 {
entry:
  %call = tail call i32 @_ZN9FastBoard10get_vertexEii(%class.FastBoard* nonnull align 8 dereferenceable(8052) %this, i32 %x, i32 %y), !sourceFile !3, !mergedLineNum !4
  %0 = icmp ult i32 %call, 441
  br i1 %0, label %land.rhs4.i, label %cond.false.i, !sourceFile !3, !mergedLineNum !4

cond.false.i:                                     ; preds = %entry
  tail call void @__assert_fail(i8* getelementptr inbounds ([30 x i8], [30 x i8]* @.str.6, i64 0, i64 0), i8* getelementptr inbounds ([14 x i8], [14 x i8]* @.str.1, i64 0, i64 0), i32 52, i8* getelementptr inbounds ([53 x i8], [53 x i8]* @__PRETTY_FUNCTION__._ZN9FastBoard10set_squareEiNS_8square_tE, i64 0, i64 0)) #19, !sourceFile !3, !mergedLineNum !4
  unreachable, !sourceFile !3, !mergedLineNum !4

land.rhs4.i:                                      ; preds = %entry
  %m_maxsq.i = getelementptr inbounds %class.FastBoard, %class.FastBoard* %this, i64 0, i32 4, !sourceFile !3, !mergedLineNum !4
  %1 = load i32, i32* %m_maxsq.i, align 4, !tbaa !17, !sourceFile !3, !mergedLineNum !4
  %cmp5.i = icmp sgt i32 %1, %call, !sourceFile !3, !mergedLineNum !4
  br i1 %cmp5.i, label %cond.end9.i, label %cond.false8.i, !sourceFile !3, !mergedLineNum !4

cond.false8.i:                                    ; preds = %land.rhs4.i
  tail call void @__assert_fail(i8* getelementptr inbounds ([32 x i8], [32 x i8]* @.str.5, i64 0, i64 0), i8* getelementptr inbounds ([14 x i8], [14 x i8]* @.str.1, i64 0, i64 0), i32 53, i8* getelementptr inbounds ([53 x i8], [53 x i8]* @__PRETTY_FUNCTION__._ZN9FastBoard10set_squareEiNS_8square_tE, i64 0, i64 0)) #19, !sourceFile !3, !mergedLineNum !4
  unreachable, !sourceFile !3, !mergedLineNum !4

cond.end9.i:                                      ; preds = %land.rhs4.i
  %2 = icmp ult i32 %content, 4
  br i1 %2, label %_ZN9FastBoard10set_squareEiNS_8square_tE.exit, label %cond.false15.i, !sourceFile !3, !mergedLineNum !4

cond.false15.i:                                   ; preds = %cond.end9.i
  tail call void @__assert_fail(i8* getelementptr inbounds ([37 x i8], [37 x i8]* @.str.7, i64 0, i64 0), i8* getelementptr inbounds ([14 x i8], [14 x i8]* @.str.1, i64 0, i64 0), i32 54, i8* getelementptr inbounds ([53 x i8], [53 x i8]* @__PRETTY_FUNCTION__._ZN9FastBoard10set_squareEiNS_8square_tE, i64 0, i64 0)) #19, !sourceFile !3, !mergedLineNum !4
  unreachable, !sourceFile !3, !mergedLineNum !4

_ZN9FastBoard10set_squareEiNS_8square_tE.exit:    ; preds = %cond.end9.i
  %conv23.i = zext i32 %call to i64
  %arrayidx.i.i = getelementptr inbounds %class.FastBoard, %class.FastBoard* %this, i64 0, i32 5, i32 0, i64 %conv23.i
  store i32 %content, i32* %arrayidx.i.i, align 4, !tbaa !18, !sourceFile !3, !mergedLineNum !4
  ret void, !sourceFile !3, !mergedLineNum !4
}

; Function Attrs: mustprogress nounwind uwtable
define dso_local void @_ZN9FastBoard11reset_boardEi(%class.FastBoard* nonnull align 8 dereferenceable(8052) %this, i32 %size) local_unnamed_addr #1 align 2 {
entry:
  %m_boardsize = getelementptr inbounds %class.FastBoard, %class.FastBoard* %this, i64 0, i32 17, !sourceFile !3, !mergedLineNum !4
  store i32 %size, i32* %m_boardsize, align 8, !tbaa !5, !sourceFile !3, !mergedLineNum !4
  %add = add i32 %size, 2
  %mul = mul i32 %add, %add
  %m_maxsq = getelementptr inbounds %class.FastBoard, %class.FastBoard* %this, i64 0, i32 4, !sourceFile !3, !mergedLineNum !4
  store i32 %mul, i32* %m_maxsq, align 4, !tbaa !17, !sourceFile !3, !mergedLineNum !4
  %m_tomove = getelementptr inbounds %class.FastBoard, %class.FastBoard* %this, i64 0, i32 3, !sourceFile !3, !mergedLineNum !4
  store i32 0, i32* %m_tomove, align 8, !tbaa !20, !sourceFile !3, !mergedLineNum !4
  %arrayidx.i = getelementptr inbounds %class.FastBoard, %class.FastBoard* %this, i64 0, i32 14, i32 0, i64 0
  %m_empty_cnt = getelementptr inbounds %class.FastBoard, %class.FastBoard* %this, i64 0, i32 2, !sourceFile !3, !mergedLineNum !4
  store i32 0, i32* %m_empty_cnt, align 4, !tbaa !21, !sourceFile !3, !mergedLineNum !4
  %sub8 = sub i32 -2, %size
  %arrayidx.i171 = getelementptr inbounds %class.FastBoard, %class.FastBoard* %this, i64 0, i32 12, i32 0, i64 0
  %0 = bitcast i32* %arrayidx.i to i8*
  call void @llvm.memset.p0i8.i64(i8* noundef nonnull align 8 dereferenceable(16) %0, i8 0, i64 16, i1 false)
  store i32 %sub8, i32* %arrayidx.i171, align 8, !tbaa !22, !sourceFile !3, !mergedLineNum !4
  %arrayidx.i172 = getelementptr inbounds %class.FastBoard, %class.FastBoard* %this, i64 0, i32 12, i32 0, i64 1
  store i32 1, i32* %arrayidx.i172, align 4, !tbaa !22, !sourceFile !3, !mergedLineNum !4
  %arrayidx.i173 = getelementptr inbounds %class.FastBoard, %class.FastBoard* %this, i64 0, i32 12, i32 0, i64 2
  store i32 %add, i32* %arrayidx.i173, align 8, !tbaa !22, !sourceFile !3, !mergedLineNum !4
  %arrayidx.i174 = getelementptr inbounds %class.FastBoard, %class.FastBoard* %this, i64 0, i32 12, i32 0, i64 3
  store i32 -1, i32* %arrayidx.i174, align 4, !tbaa !22, !sourceFile !3, !mergedLineNum !4
  %sub19 = sub i32 -3, %size
  %arrayidx.i175 = getelementptr inbounds %class.FastBoard, %class.FastBoard* %this, i64 0, i32 13, i32 0, i64 0
  store i32 %sub19, i32* %arrayidx.i175, align 8, !tbaa !22, !sourceFile !3, !mergedLineNum !4
  %arrayidx.i176 = getelementptr inbounds %class.FastBoard, %class.FastBoard* %this, i64 0, i32 13, i32 0, i64 1
  store i32 %sub8, i32* %arrayidx.i176, align 4, !tbaa !22, !sourceFile !3, !mergedLineNum !4
  %add27 = xor i32 %size, -1
  %arrayidx.i177 = getelementptr inbounds %class.FastBoard, %class.FastBoard* %this, i64 0, i32 13, i32 0, i64 2
  store i32 %add27, i32* %arrayidx.i177, align 8, !tbaa !22, !sourceFile !3, !mergedLineNum !4
  %arrayidx.i178 = getelementptr inbounds %class.FastBoard, %class.FastBoard* %this, i64 0, i32 13, i32 0, i64 3
  store i32 -1, i32* %arrayidx.i178, align 4, !tbaa !22, !sourceFile !3, !mergedLineNum !4
  %arrayidx.i179 = getelementptr inbounds %class.FastBoard, %class.FastBoard* %this, i64 0, i32 13, i32 0, i64 4
  store i32 1, i32* %arrayidx.i179, align 8, !tbaa !22, !sourceFile !3, !mergedLineNum !4
  %sub35 = add nsw i32 %size, 1
  %arrayidx.i180 = getelementptr inbounds %class.FastBoard, %class.FastBoard* %this, i64 0, i32 13, i32 0, i64 5
  store i32 %sub35, i32* %arrayidx.i180, align 4, !tbaa !22, !sourceFile !3, !mergedLineNum !4
  %arrayidx.i181 = getelementptr inbounds %class.FastBoard, %class.FastBoard* %this, i64 0, i32 13, i32 0, i64 6
  store i32 %add, i32* %arrayidx.i181, align 8, !tbaa !22, !sourceFile !3, !mergedLineNum !4
  %add42 = add nsw i32 %size, 3, !sourceFile !3, !mergedLineNum !4
  %arrayidx.i182 = getelementptr inbounds %class.FastBoard, %class.FastBoard* %this, i64 0, i32 13, i32 0, i64 7
  store i32 %add42, i32* %arrayidx.i182, align 4, !tbaa !22, !sourceFile !3, !mergedLineNum !4
  %cmp229.not = icmp eq i32 %mul, 0
  br i1 %cmp229.not, label %for.cond52.preheader, label %for.body.preheader, !sourceFile !3, !mergedLineNum !4

for.body.preheader:                               ; preds = %entry
  %wide.trip.count = zext i32 %mul to i64
  %1 = add nsw i64 %wide.trip.count, -1
  %umin = call i64 @llvm.umin.i64(i64 %1, i64 441)
  %2 = add nuw nsw i64 %umin, 1
  %min.iters.check = icmp ult i64 %umin, 4
  br i1 %min.iters.check, label %for.body.preheader241, label %vector.ph

for.body.preheader241:                            ; preds = %vector.body, %for.body.preheader
  %indvars.iv.ph = phi i64 [ 0, %for.body.preheader ], [ %n.vec, %vector.body ]
  br label %for.body

vector.ph:                                        ; preds = %for.body.preheader
  %n.mod.vf = and i64 %2, 3
  %3 = icmp eq i64 %n.mod.vf, 0
  %4 = select i1 %3, i64 4, i64 %n.mod.vf
  %n.vec = sub nsw i64 %2, %4
  br label %vector.body

vector.body:                                      ; preds = %vector.body, %vector.ph
  %index = phi i64 [ 0, %vector.ph ], [ %index.next, %vector.body ]
  %5 = getelementptr inbounds %class.FastBoard, %class.FastBoard* %this, i64 0, i32 5, i32 0, i64 %index
  %6 = bitcast i32* %5 to <4 x i32>*
  store <4 x i32> <i32 3, i32 3, i32 3, i32 3>, <4 x i32>* %6, align 8, !tbaa !18
  %7 = getelementptr inbounds %class.FastBoard, %class.FastBoard* %this, i64 0, i32 10, i32 0, i64 %index
  %8 = bitcast i16* %7 to <4 x i16>*
  store <4 x i16> zeroinitializer, <4 x i16>* %8, align 4, !tbaa !23
  %9 = getelementptr inbounds %class.FastBoard, %class.FastBoard* %this, i64 0, i32 7, i32 0, i64 %index
  %10 = bitcast i16* %9 to <4 x i16>*
  store <4 x i16> <i16 441, i16 441, i16 441, i16 441>, <4 x i16>* %10, align 8, !tbaa !23
  %index.next = add nuw i64 %index, 4
  %11 = icmp eq i64 %index.next, %n.vec
  br i1 %11, label %for.body.preheader241, label %vector.body, !llvm.loop !25

for.cond52.preheader:                             ; preds = %_ZN5boost5arrayItLm442EEixEm.exit, %entry
  %sub74 = add nsw i32 %size, -1
  %cmp57231 = icmp sgt i32 %size, 0
  br i1 %cmp57231, label %for.body59.preheader, label %for.cond.cleanup54, !sourceFile !3, !mergedLineNum !4

for.body:                                         ; preds = %for.body.preheader241, %_ZN5boost5arrayItLm442EEixEm.exit
  %indvars.iv = phi i64 [ %indvars.iv.next, %_ZN5boost5arrayItLm442EEixEm.exit ], [ %indvars.iv.ph, %for.body.preheader241 ]
  %exitcond.not = icmp eq i64 %indvars.iv, 441
  br i1 %exitcond.not, label %cond.false.i, label %_ZN5boost5arrayItLm442EEixEm.exit, !sourceFile !3, !mergedLineNum !4

cond.false.i:                                     ; preds = %for.body
  tail call void @__assert_fail(i8* getelementptr inbounds ([24 x i8], [24 x i8]* @.str.61, i64 0, i64 0), i8* getelementptr inbounds ([18 x i8], [18 x i8]* @.str.62, i64 0, i64 0), i32 92, i8* getelementptr inbounds ([135 x i8], [135 x i8]* @__PRETTY_FUNCTION__._ZN5boost5arrayIN9FastBoard8square_tELm441EEixEm, i64 0, i64 0)) #19, !sourceFile !3, !mergedLineNum !4
  unreachable, !sourceFile !3, !mergedLineNum !4

_ZN5boost5arrayItLm442EEixEm.exit:                ; preds = %for.body
  %arrayidx.i183 = getelementptr inbounds %class.FastBoard, %class.FastBoard* %this, i64 0, i32 5, i32 0, i64 %indvars.iv
  store i32 3, i32* %arrayidx.i183, align 4, !tbaa !18, !sourceFile !3, !mergedLineNum !4
  %arrayidx.i186 = getelementptr inbounds %class.FastBoard, %class.FastBoard* %this, i64 0, i32 10, i32 0, i64 %indvars.iv
  store i16 0, i16* %arrayidx.i186, align 2, !tbaa !23, !sourceFile !3, !mergedLineNum !4
  %arrayidx.i189 = getelementptr inbounds %class.FastBoard, %class.FastBoard* %this, i64 0, i32 7, i32 0, i64 %indvars.iv
  store i16 441, i16* %arrayidx.i189, align 2, !tbaa !23, !sourceFile !3, !mergedLineNum !4
  %indvars.iv.next = add nuw nsw i64 %indvars.iv, 1
  %exitcond236.not = icmp eq i64 %indvars.iv.next, %wide.trip.count
  br i1 %exitcond236.not, label %for.cond52.preheader, label %for.body, !llvm.loop !28, !sourceFile !3, !mergedLineNum !4

for.body59.preheader:                             ; preds = %for.cond52.preheader, %for.cond.cleanup58
  %i51.0234 = phi i32 [ %inc123, %for.cond.cleanup58 ], [ 0, %for.cond52.preheader ]
  %cmp73 = icmp eq i32 %i51.0234, 0
  %cmp75 = icmp eq i32 %i51.0234, %sub74
  %or.cond = select i1 %cmp73, i1 true, i1 %cmp75
  %. = select i1 %or.cond, i16 273, i16 512
  br label %for.body59

for.cond.cleanup54:                               ; preds = %for.cond.cleanup58, %for.cond52.preheader
  %arrayidx.i190 = getelementptr inbounds %class.FastBoard, %class.FastBoard* %this, i64 0, i32 7, i32 0, i64 441
  store i16 441, i16* %arrayidx.i190, align 2, !tbaa !23, !sourceFile !3, !mergedLineNum !4
  %arrayidx.i191 = getelementptr inbounds %class.FastBoard, %class.FastBoard* %this, i64 0, i32 8, i32 0, i64 441
  store i16 999, i16* %arrayidx.i191, align 2, !tbaa !23, !sourceFile !3, !mergedLineNum !4
  %arrayidx.i192 = getelementptr inbounds %class.FastBoard, %class.FastBoard* %this, i64 0, i32 6, i32 0, i64 441
  store i16 441, i16* %arrayidx.i192, align 2, !tbaa !23, !sourceFile !3, !mergedLineNum !4
  ret void, !sourceFile !3, !mergedLineNum !4

for.cond.cleanup58:                               ; preds = %_ZN5boost5arrayItLm441EEixEm.exit204
  %inc123 = add nuw nsw i32 %i51.0234, 1, !sourceFile !3, !mergedLineNum !4
  %exitcond238.not = icmp eq i32 %inc123, %size
  br i1 %exitcond238.not, label %for.cond.cleanup54, label %for.body59.preheader, !llvm.loop !30, !sourceFile !3, !mergedLineNum !4

for.body59:                                       ; preds = %for.body59.preheader, %_ZN5boost5arrayItLm441EEixEm.exit204
  %j.0232 = phi i32 [ %inc120, %_ZN5boost5arrayItLm441EEixEm.exit204 ], [ 0, %for.body59.preheader ]
  %call60 = tail call i32 @_ZN9FastBoard10get_vertexEii(%class.FastBoard* nonnull align 8 dereferenceable(8052) %this, i32 %i51.0234, i32 %j.0232), !sourceFile !3, !mergedLineNum !4
  %conv62 = sext i32 %call60 to i64, !sourceFile !3, !mergedLineNum !4
  %cmp.i193 = icmp ult i32 %call60, 441
  br i1 %cmp.i193, label %_ZN5boost5arrayItLm441EEixEm.exit200, label %cond.false.i194, !sourceFile !3, !mergedLineNum !4

cond.false.i194:                                  ; preds = %for.body59
  tail call void @__assert_fail(i8* getelementptr inbounds ([24 x i8], [24 x i8]* @.str.61, i64 0, i64 0), i8* getelementptr inbounds ([18 x i8], [18 x i8]* @.str.62, i64 0, i64 0), i32 92, i8* getelementptr inbounds ([135 x i8], [135 x i8]* @__PRETTY_FUNCTION__._ZN5boost5arrayIN9FastBoard8square_tELm441EEixEm, i64 0, i64 0)) #19, !sourceFile !3, !mergedLineNum !4
  unreachable, !sourceFile !3, !mergedLineNum !4

_ZN5boost5arrayItLm441EEixEm.exit200:             ; preds = %for.body59
  %arrayidx.i195 = getelementptr inbounds %class.FastBoard, %class.FastBoard* %this, i64 0, i32 5, i32 0, i64 %conv62
  store i32 2, i32* %arrayidx.i195, align 4, !tbaa !18, !sourceFile !3, !mergedLineNum !4
  %12 = load i32, i32* %m_empty_cnt, align 4, !tbaa !21, !sourceFile !3, !mergedLineNum !4
  %conv65 = trunc i32 %12 to i16, !sourceFile !3, !mergedLineNum !4
  %arrayidx.i199 = getelementptr inbounds %class.FastBoard, %class.FastBoard* %this, i64 0, i32 1, i32 0, i64 %conv62
  store i16 %conv65, i16* %arrayidx.i199, align 2, !tbaa !23, !sourceFile !3, !mergedLineNum !4
  %inc70 = add nsw i32 %12, 1, !sourceFile !3, !mergedLineNum !4
  store i32 %inc70, i32* %m_empty_cnt, align 4, !tbaa !21, !sourceFile !3, !mergedLineNum !4
  %cmp.i201 = icmp ult i32 %12, 441
  br i1 %cmp.i201, label %_ZN5boost5arrayItLm441EEixEm.exit204, label %cond.false.i202, !sourceFile !3, !mergedLineNum !4

cond.false.i202:                                  ; preds = %_ZN5boost5arrayItLm441EEixEm.exit200
  tail call void @__assert_fail(i8* getelementptr inbounds ([24 x i8], [24 x i8]* @.str.61, i64 0, i64 0), i8* getelementptr inbounds ([18 x i8], [18 x i8]* @.str.62, i64 0, i64 0), i32 92, i8* getelementptr inbounds ([125 x i8], [125 x i8]* @__PRETTY_FUNCTION__._ZN5boost5arrayItLm441EEixEm, i64 0, i64 0)) #19, !sourceFile !3, !mergedLineNum !4
  unreachable, !sourceFile !3, !mergedLineNum !4

_ZN5boost5arrayItLm441EEixEm.exit204:             ; preds = %_ZN5boost5arrayItLm441EEixEm.exit200
  %conv71239 = zext i32 %12 to i64
  %conv68 = trunc i32 %call60 to i16, !sourceFile !3, !mergedLineNum !4
  %arrayidx.i203 = getelementptr inbounds %class.FastBoard, %class.FastBoard* %this, i64 0, i32 0, i32 0, i64 %conv71239
  store i16 %conv68, i16* %arrayidx.i203, align 2, !tbaa !23, !sourceFile !3, !mergedLineNum !4
  %arrayidx.i207 = getelementptr inbounds %class.FastBoard, %class.FastBoard* %this, i64 0, i32 10, i32 0, i64 %conv62
  %13 = load i16, i16* %arrayidx.i207, align 2, !tbaa !23
  %add92 = add i16 %13, %.
  %cmp94 = icmp eq i32 %j.0232, 0, !sourceFile !3, !mergedLineNum !4
  %cmp97 = icmp eq i32 %j.0232, %sub74
  %or.cond167 = select i1 %cmp94, i1 true, i1 %cmp97
  %.sink240 = select i1 %or.cond167, i16 273, i16 512
  %arrayidx.i227 = getelementptr inbounds %class.FastBoard, %class.FastBoard* %this, i64 0, i32 10, i32 0, i64 %conv62
  %add116 = add i16 %add92, %.sink240
  store i16 %add116, i16* %arrayidx.i227, align 2, !tbaa !23
  %inc120 = add nuw nsw i32 %j.0232, 1, !sourceFile !3, !mergedLineNum !4
  %exitcond237.not = icmp eq i32 %inc120, %size
  br i1 %exitcond237.not, label %for.cond.cleanup58, label %for.body59, !llvm.loop !31, !sourceFile !3, !mergedLineNum !4
}

; Function Attrs: mustprogress nounwind uwtable
define dso_local zeroext i1 @_ZN9FastBoard10is_suicideEii(%class.FastBoard* nocapture nonnull align 8 dereferenceable(8052) %this, i32 %i, i32 %color) local_unnamed_addr #1 align 2 {
entry:
  %cmp.i.i.i = icmp ult i32 %i, 441
  br i1 %cmp.i.i.i, label %_ZN9FastBoard16count_plibertiesEi.exit, label %cond.false.i.i.i, !sourceFile !3, !mergedLineNum !4

cond.false.i.i.i:                                 ; preds = %entry
  tail call void @__assert_fail(i8* getelementptr inbounds ([24 x i8], [24 x i8]* @.str.61, i64 0, i64 0), i8* getelementptr inbounds ([18 x i8], [18 x i8]* @.str.62, i64 0, i64 0), i32 92, i8* getelementptr inbounds ([125 x i8], [125 x i8]* @__PRETTY_FUNCTION__._ZN5boost5arrayItLm441EEixEm, i64 0, i64 0)) #19, !sourceFile !3, !mergedLineNum !4
  unreachable, !sourceFile !3, !mergedLineNum !4

_ZN9FastBoard16count_plibertiesEi.exit:           ; preds = %entry
  %conv9.i.i = zext i32 %i to i64
  %arrayidx.i.i.i = getelementptr inbounds %class.FastBoard, %class.FastBoard* %this, i64 0, i32 10, i32 0, i64 %conv9.i.i
  %0 = load i16, i16* %arrayidx.i.i.i, align 2, !tbaa !23, !sourceFile !3, !mergedLineNum !4
  %1 = and i16 %0, 1792
  %tobool.not = icmp eq i16 %1, 0
  br i1 %tobool.not, label %for.cond.preheader, label %return, !sourceFile !3, !mergedLineNum !4

for.cond.preheader:                               ; preds = %_ZN9FastBoard16count_plibertiesEi.exit
  %m_maxsq.i = getelementptr inbounds %class.FastBoard, %class.FastBoard* %this, i64 0, i32 4
  %2 = load i32, i32* %m_maxsq.i, align 4
  %arrayidx.i = getelementptr inbounds %class.FastBoard, %class.FastBoard* %this, i64 0, i32 12, i32 0, i64 0
  %3 = load i32, i32* %arrayidx.i, align 8, !tbaa !22, !sourceFile !3, !mergedLineNum !4
  %add = add nsw i32 %3, %i, !sourceFile !3, !mergedLineNum !4
  %cmp.i95 = icmp ult i32 %add, 442
  br i1 %cmp.i95, label %_ZN5boost5arrayItLm442EEixEm.exit, label %cond.false.i96, !sourceFile !3, !mergedLineNum !4

cond.false.i96:                                   ; preds = %for.inc.2, %for.inc.1, %for.inc, %for.cond.preheader
  tail call void @__assert_fail(i8* getelementptr inbounds ([24 x i8], [24 x i8]* @.str.61, i64 0, i64 0), i8* getelementptr inbounds ([18 x i8], [18 x i8]* @.str.62, i64 0, i64 0), i32 92, i8* getelementptr inbounds ([125 x i8], [125 x i8]* @__PRETTY_FUNCTION__._ZN5boost5arrayItLm442EEixEm, i64 0, i64 0)) #19, !sourceFile !3, !mergedLineNum !4
  unreachable, !sourceFile !3, !mergedLineNum !4

_ZN5boost5arrayItLm442EEixEm.exit:                ; preds = %for.cond.preheader
  %conv3155 = zext i32 %add to i64
  %arrayidx.i97 = getelementptr inbounds %class.FastBoard, %class.FastBoard* %this, i64 0, i32 7, i32 0, i64 %conv3155
  %4 = load i16, i16* %arrayidx.i97, align 2, !tbaa !23, !sourceFile !3, !mergedLineNum !4
  %cmp.i98 = icmp ult i16 %4, 442
  br i1 %cmp.i98, label %_ZN5boost5arrayItLm442EEixEm.exit101, label %cond.false.i99, !sourceFile !3, !mergedLineNum !4

cond.false.i99:                                   ; preds = %_ZN5boost5arrayItLm442EEixEm.exit.3, %_ZN5boost5arrayItLm442EEixEm.exit.2, %_ZN5boost5arrayItLm442EEixEm.exit.1, %_ZN5boost5arrayItLm442EEixEm.exit
  tail call void @__assert_fail(i8* getelementptr inbounds ([24 x i8], [24 x i8]* @.str.61, i64 0, i64 0), i8* getelementptr inbounds ([18 x i8], [18 x i8]* @.str.62, i64 0, i64 0), i32 92, i8* getelementptr inbounds ([125 x i8], [125 x i8]* @__PRETTY_FUNCTION__._ZN5boost5arrayItLm442EEixEm, i64 0, i64 0)) #19, !sourceFile !3, !mergedLineNum !4
  unreachable, !sourceFile !3, !mergedLineNum !4

_ZN5boost5arrayItLm442EEixEm.exit101:             ; preds = %_ZN5boost5arrayItLm442EEixEm.exit
  %conv5 = zext i16 %4 to i64, !sourceFile !3, !mergedLineNum !4
  %arrayidx.i100 = getelementptr inbounds %class.FastBoard, %class.FastBoard* %this, i64 0, i32 8, i32 0, i64 %conv5
  %5 = load i16, i16* %arrayidx.i100, align 2, !tbaa !23, !sourceFile !3, !mergedLineNum !4
  %6 = icmp ult i32 %add, 441
  br i1 %6, label %land.rhs4.i, label %cond.false.i102, !sourceFile !3, !mergedLineNum !4

cond.false.i102:                                  ; preds = %_ZN5boost5arrayItLm442EEixEm.exit101.3, %_ZN5boost5arrayItLm442EEixEm.exit101.2, %_ZN5boost5arrayItLm442EEixEm.exit101.1, %_ZN5boost5arrayItLm442EEixEm.exit101
  tail call void @__assert_fail(i8* getelementptr inbounds ([30 x i8], [30 x i8]* @.str.6, i64 0, i64 0), i8* getelementptr inbounds ([14 x i8], [14 x i8]* @.str.1, i64 0, i64 0), i32 45, i8* getelementptr inbounds ([47 x i8], [47 x i8]* @__PRETTY_FUNCTION__._ZN9FastBoard10get_squareEi, i64 0, i64 0)) #19, !sourceFile !3, !mergedLineNum !4
  unreachable, !sourceFile !3, !mergedLineNum !4

land.rhs4.i:                                      ; preds = %_ZN5boost5arrayItLm442EEixEm.exit101
  %cmp5.i = icmp sgt i32 %2, %add, !sourceFile !3, !mergedLineNum !4
  br i1 %cmp5.i, label %_ZN9FastBoard10get_squareEi.exit, label %cond.false8.i, !sourceFile !3, !mergedLineNum !4

cond.false8.i:                                    ; preds = %land.rhs4.i.3, %land.rhs4.i.2, %land.rhs4.i.1, %land.rhs4.i
  tail call void @__assert_fail(i8* getelementptr inbounds ([32 x i8], [32 x i8]* @.str.5, i64 0, i64 0), i8* getelementptr inbounds ([14 x i8], [14 x i8]* @.str.1, i64 0, i64 0), i32 46, i8* getelementptr inbounds ([47 x i8], [47 x i8]* @__PRETTY_FUNCTION__._ZN9FastBoard10get_squareEi, i64 0, i64 0)) #19, !sourceFile !3, !mergedLineNum !4
  unreachable, !sourceFile !3, !mergedLineNum !4

_ZN9FastBoard10get_squareEi.exit:                 ; preds = %land.rhs4.i
  %conv14.i = zext i32 %add to i64
  %arrayidx.i.i = getelementptr inbounds %class.FastBoard, %class.FastBoard* %this, i64 0, i32 5, i32 0, i64 %conv14.i
  %7 = load i32, i32* %arrayidx.i.i, align 4, !tbaa !18, !sourceFile !3, !mergedLineNum !4
  %cmp9 = icmp eq i32 %7, %color, !sourceFile !3, !mergedLineNum !4
  br i1 %cmp9, label %if.then10, label %if.else, !sourceFile !3, !mergedLineNum !4

if.then10:                                        ; preds = %_ZN9FastBoard10get_squareEi.exit
  %cmp11 = icmp ugt i16 %5, 1
  br i1 %cmp11, label %return, label %for.inc, !sourceFile !3, !mergedLineNum !4

if.else:                                          ; preds = %_ZN9FastBoard10get_squareEi.exit
  %cmp14 = icmp ult i16 %5, 2
  br i1 %cmp14, label %return, label %for.inc, !sourceFile !3, !mergedLineNum !4

for.inc:                                          ; preds = %if.then10, %if.else
  %connecting.1 = phi i8 [ 0, %if.else ], [ 1, %if.then10 ], !sourceFile !3, !mergedLineNum !4
  %arrayidx.i.1 = getelementptr inbounds %class.FastBoard, %class.FastBoard* %this, i64 0, i32 12, i32 0, i64 1
  %8 = load i32, i32* %arrayidx.i.1, align 4, !tbaa !22, !sourceFile !3, !mergedLineNum !4
  %add.1 = add nsw i32 %8, %i, !sourceFile !3, !mergedLineNum !4
  %cmp.i95.1 = icmp ult i32 %add.1, 442
  br i1 %cmp.i95.1, label %_ZN5boost5arrayItLm442EEixEm.exit.1, label %cond.false.i96, !sourceFile !3, !mergedLineNum !4

cond.false.i108:                                  ; preds = %if.end50.2, %if.end50.1, %if.end50, %for.inc.3
  tail call void @__assert_fail(i8* getelementptr inbounds ([24 x i8], [24 x i8]* @.str.61, i64 0, i64 0), i8* getelementptr inbounds ([18 x i8], [18 x i8]* @.str.62, i64 0, i64 0), i32 92, i8* getelementptr inbounds ([125 x i8], [125 x i8]* @__PRETTY_FUNCTION__._ZN5boost5arrayItLm442EEixEm, i64 0, i64 0)) #19, !sourceFile !3, !mergedLineNum !4
  unreachable, !sourceFile !3, !mergedLineNum !4

_ZN5boost5arrayItLm442EEixEm.exit110:             ; preds = %for.inc.3
  %conv34159 = zext i32 %add30 to i64
  %arrayidx.i109 = getelementptr inbounds %class.FastBoard, %class.FastBoard* %this, i64 0, i32 7, i32 0, i64 %conv34159
  %9 = load i16, i16* %arrayidx.i109, align 2, !tbaa !23, !sourceFile !3, !mergedLineNum !4
  %cmp.i111 = icmp ult i16 %9, 442
  br i1 %cmp.i111, label %_ZN5boost5arrayItLm442EEixEm.exit114, label %cond.false.i112, !sourceFile !3, !mergedLineNum !4

cond.false.i112:                                  ; preds = %_ZN5boost5arrayItLm442EEixEm.exit110.3, %_ZN5boost5arrayItLm442EEixEm.exit110.2, %_ZN5boost5arrayItLm442EEixEm.exit110.1, %_ZN5boost5arrayItLm442EEixEm.exit110
  tail call void @__assert_fail(i8* getelementptr inbounds ([24 x i8], [24 x i8]* @.str.61, i64 0, i64 0), i8* getelementptr inbounds ([18 x i8], [18 x i8]* @.str.62, i64 0, i64 0), i32 92, i8* getelementptr inbounds ([125 x i8], [125 x i8]* @__PRETTY_FUNCTION__._ZN5boost5arrayItLm442EEixEm, i64 0, i64 0)) #19, !sourceFile !3, !mergedLineNum !4
  unreachable, !sourceFile !3, !mergedLineNum !4

_ZN5boost5arrayItLm442EEixEm.exit114:             ; preds = %_ZN5boost5arrayItLm442EEixEm.exit110
  %conv36 = zext i16 %9 to i64, !sourceFile !3, !mergedLineNum !4
  %arrayidx.i113 = getelementptr inbounds %class.FastBoard, %class.FastBoard* %this, i64 0, i32 8, i32 0, i64 %conv36
  %10 = load i16, i16* %arrayidx.i113, align 2, !tbaa !23, !sourceFile !3, !mergedLineNum !4
  %cond = icmp eq i16 %10, 0
  %11 = icmp ult i32 %add30, 441
  br i1 %cond, label %land.lhs.true, label %land.lhs.true45

land.lhs.true:                                    ; preds = %_ZN5boost5arrayItLm442EEixEm.exit114
  br i1 %11, label %land.rhs4.i118, label %cond.false.i115, !sourceFile !3, !mergedLineNum !4

cond.false.i115:                                  ; preds = %land.lhs.true.3, %land.lhs.true.2, %land.lhs.true.1, %land.lhs.true
  tail call void @__assert_fail(i8* getelementptr inbounds ([30 x i8], [30 x i8]* @.str.6, i64 0, i64 0), i8* getelementptr inbounds ([14 x i8], [14 x i8]* @.str.1, i64 0, i64 0), i32 45, i8* getelementptr inbounds ([47 x i8], [47 x i8]* @__PRETTY_FUNCTION__._ZN9FastBoard10get_squareEi, i64 0, i64 0)) #19, !sourceFile !3, !mergedLineNum !4
  unreachable, !sourceFile !3, !mergedLineNum !4

land.rhs4.i118:                                   ; preds = %land.lhs.true
  %cmp5.i117 = icmp sgt i32 %29, %add30, !sourceFile !3, !mergedLineNum !4
  br i1 %cmp5.i117, label %_ZN9FastBoard10get_squareEi.exit122, label %cond.false8.i119, !sourceFile !3, !mergedLineNum !4

cond.false8.i119:                                 ; preds = %land.rhs4.i118.3, %land.rhs4.i118.2, %land.rhs4.i118.1, %land.rhs4.i118
  tail call void @__assert_fail(i8* getelementptr inbounds ([32 x i8], [32 x i8]* @.str.5, i64 0, i64 0), i8* getelementptr inbounds ([14 x i8], [14 x i8]* @.str.1, i64 0, i64 0), i32 46, i8* getelementptr inbounds ([47 x i8], [47 x i8]* @__PRETTY_FUNCTION__._ZN9FastBoard10get_squareEi, i64 0, i64 0)) #19, !sourceFile !3, !mergedLineNum !4
  unreachable, !sourceFile !3, !mergedLineNum !4

_ZN9FastBoard10get_squareEi.exit122:              ; preds = %land.rhs4.i118
  %conv14.i120 = zext i32 %add30 to i64
  %arrayidx.i.i121 = getelementptr inbounds %class.FastBoard, %class.FastBoard* %this, i64 0, i32 5, i32 0, i64 %conv14.i120
  %12 = load i32, i32* %arrayidx.i.i121, align 4, !tbaa !18, !sourceFile !3, !mergedLineNum !4
  %cmp41.not = icmp eq i32 %12, %color, !sourceFile !3, !mergedLineNum !4
  %spec.select = zext i1 %cmp41.not to i8
  br label %if.end50

land.lhs.true45:                                  ; preds = %_ZN5boost5arrayItLm442EEixEm.exit114
  br i1 %11, label %land.rhs4.i126, label %cond.false.i123, !sourceFile !3, !mergedLineNum !4

cond.false.i123:                                  ; preds = %land.lhs.true45.3, %land.lhs.true45.2, %land.lhs.true45.1, %land.lhs.true45
  tail call void @__assert_fail(i8* getelementptr inbounds ([30 x i8], [30 x i8]* @.str.6, i64 0, i64 0), i8* getelementptr inbounds ([14 x i8], [14 x i8]* @.str.1, i64 0, i64 0), i32 45, i8* getelementptr inbounds ([47 x i8], [47 x i8]* @__PRETTY_FUNCTION__._ZN9FastBoard10get_squareEi, i64 0, i64 0)) #19, !sourceFile !3, !mergedLineNum !4
  unreachable, !sourceFile !3, !mergedLineNum !4

land.rhs4.i126:                                   ; preds = %land.lhs.true45
  %cmp5.i125 = icmp sgt i32 %29, %add30, !sourceFile !3, !mergedLineNum !4
  br i1 %cmp5.i125, label %_ZN9FastBoard10get_squareEi.exit130, label %cond.false8.i127, !sourceFile !3, !mergedLineNum !4

cond.false8.i127:                                 ; preds = %land.rhs4.i126.3, %land.rhs4.i126.2, %land.rhs4.i126.1, %land.rhs4.i126
  tail call void @__assert_fail(i8* getelementptr inbounds ([32 x i8], [32 x i8]* @.str.5, i64 0, i64 0), i8* getelementptr inbounds ([14 x i8], [14 x i8]* @.str.1, i64 0, i64 0), i32 46, i8* getelementptr inbounds ([47 x i8], [47 x i8]* @__PRETTY_FUNCTION__._ZN9FastBoard10get_squareEi, i64 0, i64 0)) #19, !sourceFile !3, !mergedLineNum !4
  unreachable, !sourceFile !3, !mergedLineNum !4

_ZN9FastBoard10get_squareEi.exit130:              ; preds = %land.rhs4.i126
  %conv14.i128 = zext i32 %add30 to i64
  %arrayidx.i.i129 = getelementptr inbounds %class.FastBoard, %class.FastBoard* %this, i64 0, i32 5, i32 0, i64 %conv14.i128
  %13 = load i32, i32* %arrayidx.i.i129, align 4, !tbaa !18, !sourceFile !3, !mergedLineNum !4
  %cmp47 = icmp ne i32 %13, %color, !sourceFile !3, !mergedLineNum !4
  %moved.sel94 = zext i1 %cmp47 to i8
  br label %if.end50

if.end50:                                         ; preds = %_ZN9FastBoard10get_squareEi.exit122, %_ZN9FastBoard10get_squareEi.exit130
  %opps_live.1 = phi i8 [ 1, %_ZN9FastBoard10get_squareEi.exit130 ], [ %spec.select, %_ZN9FastBoard10get_squareEi.exit122 ], !sourceFile !3, !mergedLineNum !4
  %ours_die.1 = phi i8 [ %moved.sel94, %_ZN9FastBoard10get_squareEi.exit130 ], [ 1, %_ZN9FastBoard10get_squareEi.exit122 ], !sourceFile !3, !mergedLineNum !4
  %14 = load i32, i32* %arrayidx.i.1, align 4, !tbaa !22, !sourceFile !3, !mergedLineNum !4
  %add30.1 = add nsw i32 %14, %i, !sourceFile !3, !mergedLineNum !4
  %cmp.i107.1 = icmp ult i32 %add30.1, 442
  br i1 %cmp.i107.1, label %_ZN5boost5arrayItLm442EEixEm.exit110.1, label %cond.false.i108, !sourceFile !3, !mergedLineNum !4

return:                                           ; preds = %if.then10, %if.else, %if.else.1, %if.then10.1, %if.else.2, %if.then10.2, %if.else.3, %if.then10.3, %if.end50.3, %_ZN9FastBoard16count_plibertiesEi.exit
  %retval.5 = phi i1 [ false, %_ZN9FastBoard16count_plibertiesEi.exit ], [ %moved.sel, %if.end50.3 ], [ false, %if.then10.3 ], [ false, %if.else.3 ], [ false, %if.then10.2 ], [ false, %if.else.2 ], [ false, %if.then10.1 ], [ false, %if.else.1 ], [ false, %if.else ], [ false, %if.then10 ], !sourceFile !3, !mergedLineNum !4
  ret i1 %retval.5, !sourceFile !3, !mergedLineNum !4

_ZN5boost5arrayItLm442EEixEm.exit.1:              ; preds = %for.inc
  %conv3.1156 = zext i32 %add.1 to i64
  %arrayidx.i97.1 = getelementptr inbounds %class.FastBoard, %class.FastBoard* %this, i64 0, i32 7, i32 0, i64 %conv3.1156
  %15 = load i16, i16* %arrayidx.i97.1, align 2, !tbaa !23, !sourceFile !3, !mergedLineNum !4
  %cmp.i98.1 = icmp ult i16 %15, 442
  br i1 %cmp.i98.1, label %_ZN5boost5arrayItLm442EEixEm.exit101.1, label %cond.false.i99, !sourceFile !3, !mergedLineNum !4

_ZN5boost5arrayItLm442EEixEm.exit101.1:           ; preds = %_ZN5boost5arrayItLm442EEixEm.exit.1
  %conv5.1 = zext i16 %15 to i64, !sourceFile !3, !mergedLineNum !4
  %arrayidx.i100.1 = getelementptr inbounds %class.FastBoard, %class.FastBoard* %this, i64 0, i32 8, i32 0, i64 %conv5.1
  %16 = load i16, i16* %arrayidx.i100.1, align 2, !tbaa !23, !sourceFile !3, !mergedLineNum !4
  %17 = icmp ult i32 %add.1, 441
  br i1 %17, label %land.rhs4.i.1, label %cond.false.i102, !sourceFile !3, !mergedLineNum !4

land.rhs4.i.1:                                    ; preds = %_ZN5boost5arrayItLm442EEixEm.exit101.1
  %cmp5.i.1 = icmp sgt i32 %2, %add.1, !sourceFile !3, !mergedLineNum !4
  br i1 %cmp5.i.1, label %_ZN9FastBoard10get_squareEi.exit.1, label %cond.false8.i, !sourceFile !3, !mergedLineNum !4

_ZN9FastBoard10get_squareEi.exit.1:               ; preds = %land.rhs4.i.1
  %conv14.i.1 = zext i32 %add.1 to i64
  %arrayidx.i.i.1 = getelementptr inbounds %class.FastBoard, %class.FastBoard* %this, i64 0, i32 5, i32 0, i64 %conv14.i.1
  %18 = load i32, i32* %arrayidx.i.i.1, align 4, !tbaa !18, !sourceFile !3, !mergedLineNum !4
  %cmp9.1 = icmp eq i32 %18, %color, !sourceFile !3, !mergedLineNum !4
  br i1 %cmp9.1, label %if.then10.1, label %if.else.1, !sourceFile !3, !mergedLineNum !4

if.else.1:                                        ; preds = %_ZN9FastBoard10get_squareEi.exit.1
  %cmp14.1 = icmp ult i16 %16, 2
  br i1 %cmp14.1, label %return, label %for.inc.1, !sourceFile !3, !mergedLineNum !4

if.then10.1:                                      ; preds = %_ZN9FastBoard10get_squareEi.exit.1
  %cmp11.1 = icmp ugt i16 %16, 1
  br i1 %cmp11.1, label %return, label %for.inc.1, !sourceFile !3, !mergedLineNum !4

for.inc.1:                                        ; preds = %if.then10.1, %if.else.1
  %connecting.1.1 = phi i8 [ %connecting.1, %if.else.1 ], [ 1, %if.then10.1 ], !sourceFile !3, !mergedLineNum !4
  %arrayidx.i.2 = getelementptr inbounds %class.FastBoard, %class.FastBoard* %this, i64 0, i32 12, i32 0, i64 2
  %19 = load i32, i32* %arrayidx.i.2, align 8, !tbaa !22, !sourceFile !3, !mergedLineNum !4
  %add.2 = add nsw i32 %19, %i, !sourceFile !3, !mergedLineNum !4
  %cmp.i95.2 = icmp ult i32 %add.2, 442
  br i1 %cmp.i95.2, label %_ZN5boost5arrayItLm442EEixEm.exit.2, label %cond.false.i96, !sourceFile !3, !mergedLineNum !4

_ZN5boost5arrayItLm442EEixEm.exit.2:              ; preds = %for.inc.1
  %conv3.2157 = zext i32 %add.2 to i64
  %arrayidx.i97.2 = getelementptr inbounds %class.FastBoard, %class.FastBoard* %this, i64 0, i32 7, i32 0, i64 %conv3.2157
  %20 = load i16, i16* %arrayidx.i97.2, align 2, !tbaa !23, !sourceFile !3, !mergedLineNum !4
  %cmp.i98.2 = icmp ult i16 %20, 442
  br i1 %cmp.i98.2, label %_ZN5boost5arrayItLm442EEixEm.exit101.2, label %cond.false.i99, !sourceFile !3, !mergedLineNum !4

_ZN5boost5arrayItLm442EEixEm.exit101.2:           ; preds = %_ZN5boost5arrayItLm442EEixEm.exit.2
  %conv5.2 = zext i16 %20 to i64, !sourceFile !3, !mergedLineNum !4
  %arrayidx.i100.2 = getelementptr inbounds %class.FastBoard, %class.FastBoard* %this, i64 0, i32 8, i32 0, i64 %conv5.2
  %21 = load i16, i16* %arrayidx.i100.2, align 2, !tbaa !23, !sourceFile !3, !mergedLineNum !4
  %22 = icmp ult i32 %add.2, 441
  br i1 %22, label %land.rhs4.i.2, label %cond.false.i102, !sourceFile !3, !mergedLineNum !4

land.rhs4.i.2:                                    ; preds = %_ZN5boost5arrayItLm442EEixEm.exit101.2
  %cmp5.i.2 = icmp sgt i32 %2, %add.2, !sourceFile !3, !mergedLineNum !4
  br i1 %cmp5.i.2, label %_ZN9FastBoard10get_squareEi.exit.2, label %cond.false8.i, !sourceFile !3, !mergedLineNum !4

_ZN9FastBoard10get_squareEi.exit.2:               ; preds = %land.rhs4.i.2
  %conv14.i.2 = zext i32 %add.2 to i64
  %arrayidx.i.i.2 = getelementptr inbounds %class.FastBoard, %class.FastBoard* %this, i64 0, i32 5, i32 0, i64 %conv14.i.2
  %23 = load i32, i32* %arrayidx.i.i.2, align 4, !tbaa !18, !sourceFile !3, !mergedLineNum !4
  %cmp9.2 = icmp eq i32 %23, %color, !sourceFile !3, !mergedLineNum !4
  br i1 %cmp9.2, label %if.then10.2, label %if.else.2, !sourceFile !3, !mergedLineNum !4

if.else.2:                                        ; preds = %_ZN9FastBoard10get_squareEi.exit.2
  %cmp14.2 = icmp ult i16 %21, 2
  br i1 %cmp14.2, label %return, label %for.inc.2, !sourceFile !3, !mergedLineNum !4

if.then10.2:                                      ; preds = %_ZN9FastBoard10get_squareEi.exit.2
  %cmp11.2 = icmp ugt i16 %21, 1
  br i1 %cmp11.2, label %return, label %for.inc.2, !sourceFile !3, !mergedLineNum !4

for.inc.2:                                        ; preds = %if.then10.2, %if.else.2
  %connecting.1.2 = phi i8 [ %connecting.1.1, %if.else.2 ], [ 1, %if.then10.2 ], !sourceFile !3, !mergedLineNum !4
  %arrayidx.i.3 = getelementptr inbounds %class.FastBoard, %class.FastBoard* %this, i64 0, i32 12, i32 0, i64 3
  %24 = load i32, i32* %arrayidx.i.3, align 4, !tbaa !22, !sourceFile !3, !mergedLineNum !4
  %add.3 = add nsw i32 %24, %i, !sourceFile !3, !mergedLineNum !4
  %cmp.i95.3 = icmp ult i32 %add.3, 442
  br i1 %cmp.i95.3, label %_ZN5boost5arrayItLm442EEixEm.exit.3, label %cond.false.i96, !sourceFile !3, !mergedLineNum !4

_ZN5boost5arrayItLm442EEixEm.exit.3:              ; preds = %for.inc.2
  %conv3.3158 = zext i32 %add.3 to i64
  %arrayidx.i97.3 = getelementptr inbounds %class.FastBoard, %class.FastBoard* %this, i64 0, i32 7, i32 0, i64 %conv3.3158
  %25 = load i16, i16* %arrayidx.i97.3, align 2, !tbaa !23, !sourceFile !3, !mergedLineNum !4
  %cmp.i98.3 = icmp ult i16 %25, 442
  br i1 %cmp.i98.3, label %_ZN5boost5arrayItLm442EEixEm.exit101.3, label %cond.false.i99, !sourceFile !3, !mergedLineNum !4

_ZN5boost5arrayItLm442EEixEm.exit101.3:           ; preds = %_ZN5boost5arrayItLm442EEixEm.exit.3
  %conv5.3 = zext i16 %25 to i64, !sourceFile !3, !mergedLineNum !4
  %arrayidx.i100.3 = getelementptr inbounds %class.FastBoard, %class.FastBoard* %this, i64 0, i32 8, i32 0, i64 %conv5.3
  %26 = load i16, i16* %arrayidx.i100.3, align 2, !tbaa !23, !sourceFile !3, !mergedLineNum !4
  %27 = icmp ult i32 %add.3, 441
  br i1 %27, label %land.rhs4.i.3, label %cond.false.i102, !sourceFile !3, !mergedLineNum !4

land.rhs4.i.3:                                    ; preds = %_ZN5boost5arrayItLm442EEixEm.exit101.3
  %cmp5.i.3 = icmp sgt i32 %2, %add.3, !sourceFile !3, !mergedLineNum !4
  br i1 %cmp5.i.3, label %_ZN9FastBoard10get_squareEi.exit.3, label %cond.false8.i, !sourceFile !3, !mergedLineNum !4

_ZN9FastBoard10get_squareEi.exit.3:               ; preds = %land.rhs4.i.3
  %conv14.i.3 = zext i32 %add.3 to i64
  %arrayidx.i.i.3 = getelementptr inbounds %class.FastBoard, %class.FastBoard* %this, i64 0, i32 5, i32 0, i64 %conv14.i.3
  %28 = load i32, i32* %arrayidx.i.i.3, align 4, !tbaa !18, !sourceFile !3, !mergedLineNum !4
  %cmp9.3 = icmp eq i32 %28, %color, !sourceFile !3, !mergedLineNum !4
  br i1 %cmp9.3, label %if.then10.3, label %if.else.3, !sourceFile !3, !mergedLineNum !4

if.else.3:                                        ; preds = %_ZN9FastBoard10get_squareEi.exit.3
  %cmp14.3 = icmp ult i16 %26, 2
  br i1 %cmp14.3, label %return, label %for.inc.3, !sourceFile !3, !mergedLineNum !4

if.then10.3:                                      ; preds = %_ZN9FastBoard10get_squareEi.exit.3
  %cmp11.3 = icmp ugt i16 %26, 1
  br i1 %cmp11.3, label %return, label %for.inc.3, !sourceFile !3, !mergedLineNum !4

for.inc.3:                                        ; preds = %if.then10.3, %if.else.3
  %connecting.1.3 = phi i8 [ %connecting.1.2, %if.else.3 ], [ 1, %if.then10.3 ], !sourceFile !3, !mergedLineNum !4
  tail call void @_ZN9FastBoard13add_neighbourEii(%class.FastBoard* nonnull align 8 dereferenceable(8052) %this, i32 %i, i32 %color), !sourceFile !3, !mergedLineNum !4
  %29 = load i32, i32* %m_maxsq.i, align 4
  %30 = load i32, i32* %arrayidx.i, align 8, !tbaa !22, !sourceFile !3, !mergedLineNum !4
  %add30 = add nsw i32 %30, %i, !sourceFile !3, !mergedLineNum !4
  %cmp.i107 = icmp ult i32 %add30, 442
  br i1 %cmp.i107, label %_ZN5boost5arrayItLm442EEixEm.exit110, label %cond.false.i108, !sourceFile !3, !mergedLineNum !4

_ZN5boost5arrayItLm442EEixEm.exit110.1:           ; preds = %if.end50
  %conv34.1160 = zext i32 %add30.1 to i64
  %arrayidx.i109.1 = getelementptr inbounds %class.FastBoard, %class.FastBoard* %this, i64 0, i32 7, i32 0, i64 %conv34.1160
  %31 = load i16, i16* %arrayidx.i109.1, align 2, !tbaa !23, !sourceFile !3, !mergedLineNum !4
  %cmp.i111.1 = icmp ult i16 %31, 442
  br i1 %cmp.i111.1, label %_ZN5boost5arrayItLm442EEixEm.exit114.1, label %cond.false.i112, !sourceFile !3, !mergedLineNum !4

_ZN5boost5arrayItLm442EEixEm.exit114.1:           ; preds = %_ZN5boost5arrayItLm442EEixEm.exit110.1
  %conv36.1 = zext i16 %31 to i64, !sourceFile !3, !mergedLineNum !4
  %arrayidx.i113.1 = getelementptr inbounds %class.FastBoard, %class.FastBoard* %this, i64 0, i32 8, i32 0, i64 %conv36.1
  %32 = load i16, i16* %arrayidx.i113.1, align 2, !tbaa !23, !sourceFile !3, !mergedLineNum !4
  %cond.1 = icmp eq i16 %32, 0
  %33 = icmp ult i32 %add30.1, 441
  br i1 %cond.1, label %land.lhs.true.1, label %land.lhs.true45.1

land.lhs.true45.1:                                ; preds = %_ZN5boost5arrayItLm442EEixEm.exit114.1
  br i1 %33, label %land.rhs4.i126.1, label %cond.false.i123, !sourceFile !3, !mergedLineNum !4

land.rhs4.i126.1:                                 ; preds = %land.lhs.true45.1
  %cmp5.i125.1 = icmp sgt i32 %29, %add30.1, !sourceFile !3, !mergedLineNum !4
  br i1 %cmp5.i125.1, label %_ZN9FastBoard10get_squareEi.exit130.1, label %cond.false8.i127, !sourceFile !3, !mergedLineNum !4

_ZN9FastBoard10get_squareEi.exit130.1:            ; preds = %land.rhs4.i126.1
  %conv14.i128.1 = zext i32 %add30.1 to i64
  %arrayidx.i.i129.1 = getelementptr inbounds %class.FastBoard, %class.FastBoard* %this, i64 0, i32 5, i32 0, i64 %conv14.i128.1
  %34 = load i32, i32* %arrayidx.i.i129.1, align 4, !tbaa !18, !sourceFile !3, !mergedLineNum !4
  %cmp47.1 = icmp eq i32 %34, %color, !sourceFile !3, !mergedLineNum !4
  %moved.sel94.1 = select i1 %cmp47.1, i8 0, i8 %ours_die.1
  br label %if.end50.1

land.lhs.true.1:                                  ; preds = %_ZN5boost5arrayItLm442EEixEm.exit114.1
  br i1 %33, label %land.rhs4.i118.1, label %cond.false.i115, !sourceFile !3, !mergedLineNum !4

land.rhs4.i118.1:                                 ; preds = %land.lhs.true.1
  %cmp5.i117.1 = icmp sgt i32 %29, %add30.1, !sourceFile !3, !mergedLineNum !4
  br i1 %cmp5.i117.1, label %_ZN9FastBoard10get_squareEi.exit122.1, label %cond.false8.i119, !sourceFile !3, !mergedLineNum !4

_ZN9FastBoard10get_squareEi.exit122.1:            ; preds = %land.rhs4.i118.1
  %conv14.i120.1 = zext i32 %add30.1 to i64
  %arrayidx.i.i121.1 = getelementptr inbounds %class.FastBoard, %class.FastBoard* %this, i64 0, i32 5, i32 0, i64 %conv14.i120.1
  %35 = load i32, i32* %arrayidx.i.i121.1, align 4, !tbaa !18, !sourceFile !3, !mergedLineNum !4
  %cmp41.not.1 = icmp eq i32 %35, %color, !sourceFile !3, !mergedLineNum !4
  %spec.select.1 = select i1 %cmp41.not.1, i8 %opps_live.1, i8 0
  br label %if.end50.1

if.end50.1:                                       ; preds = %_ZN9FastBoard10get_squareEi.exit122.1, %_ZN9FastBoard10get_squareEi.exit130.1
  %opps_live.1.1 = phi i8 [ %opps_live.1, %_ZN9FastBoard10get_squareEi.exit130.1 ], [ %spec.select.1, %_ZN9FastBoard10get_squareEi.exit122.1 ], !sourceFile !3, !mergedLineNum !4
  %ours_die.1.1 = phi i8 [ %moved.sel94.1, %_ZN9FastBoard10get_squareEi.exit130.1 ], [ %ours_die.1, %_ZN9FastBoard10get_squareEi.exit122.1 ], !sourceFile !3, !mergedLineNum !4
  %36 = load i32, i32* %arrayidx.i.2, align 8, !tbaa !22, !sourceFile !3, !mergedLineNum !4
  %add30.2 = add nsw i32 %36, %i, !sourceFile !3, !mergedLineNum !4
  %cmp.i107.2 = icmp ult i32 %add30.2, 442
  br i1 %cmp.i107.2, label %_ZN5boost5arrayItLm442EEixEm.exit110.2, label %cond.false.i108, !sourceFile !3, !mergedLineNum !4

_ZN5boost5arrayItLm442EEixEm.exit110.2:           ; preds = %if.end50.1
  %conv34.2161 = zext i32 %add30.2 to i64
  %arrayidx.i109.2 = getelementptr inbounds %class.FastBoard, %class.FastBoard* %this, i64 0, i32 7, i32 0, i64 %conv34.2161
  %37 = load i16, i16* %arrayidx.i109.2, align 2, !tbaa !23, !sourceFile !3, !mergedLineNum !4
  %cmp.i111.2 = icmp ult i16 %37, 442
  br i1 %cmp.i111.2, label %_ZN5boost5arrayItLm442EEixEm.exit114.2, label %cond.false.i112, !sourceFile !3, !mergedLineNum !4

_ZN5boost5arrayItLm442EEixEm.exit114.2:           ; preds = %_ZN5boost5arrayItLm442EEixEm.exit110.2
  %conv36.2 = zext i16 %37 to i64, !sourceFile !3, !mergedLineNum !4
  %arrayidx.i113.2 = getelementptr inbounds %class.FastBoard, %class.FastBoard* %this, i64 0, i32 8, i32 0, i64 %conv36.2
  %38 = load i16, i16* %arrayidx.i113.2, align 2, !tbaa !23, !sourceFile !3, !mergedLineNum !4
  %cond.2 = icmp eq i16 %38, 0
  %39 = icmp ult i32 %add30.2, 441
  br i1 %cond.2, label %land.lhs.true.2, label %land.lhs.true45.2

land.lhs.true45.2:                                ; preds = %_ZN5boost5arrayItLm442EEixEm.exit114.2
  br i1 %39, label %land.rhs4.i126.2, label %cond.false.i123, !sourceFile !3, !mergedLineNum !4

land.rhs4.i126.2:                                 ; preds = %land.lhs.true45.2
  %cmp5.i125.2 = icmp sgt i32 %29, %add30.2, !sourceFile !3, !mergedLineNum !4
  br i1 %cmp5.i125.2, label %_ZN9FastBoard10get_squareEi.exit130.2, label %cond.false8.i127, !sourceFile !3, !mergedLineNum !4

_ZN9FastBoard10get_squareEi.exit130.2:            ; preds = %land.rhs4.i126.2
  %conv14.i128.2 = zext i32 %add30.2 to i64
  %arrayidx.i.i129.2 = getelementptr inbounds %class.FastBoard, %class.FastBoard* %this, i64 0, i32 5, i32 0, i64 %conv14.i128.2
  %40 = load i32, i32* %arrayidx.i.i129.2, align 4, !tbaa !18, !sourceFile !3, !mergedLineNum !4
  %cmp47.2 = icmp eq i32 %40, %color, !sourceFile !3, !mergedLineNum !4
  %moved.sel94.2 = select i1 %cmp47.2, i8 0, i8 %ours_die.1.1
  br label %if.end50.2

land.lhs.true.2:                                  ; preds = %_ZN5boost5arrayItLm442EEixEm.exit114.2
  br i1 %39, label %land.rhs4.i118.2, label %cond.false.i115, !sourceFile !3, !mergedLineNum !4

land.rhs4.i118.2:                                 ; preds = %land.lhs.true.2
  %cmp5.i117.2 = icmp sgt i32 %29, %add30.2, !sourceFile !3, !mergedLineNum !4
  br i1 %cmp5.i117.2, label %_ZN9FastBoard10get_squareEi.exit122.2, label %cond.false8.i119, !sourceFile !3, !mergedLineNum !4

_ZN9FastBoard10get_squareEi.exit122.2:            ; preds = %land.rhs4.i118.2
  %conv14.i120.2 = zext i32 %add30.2 to i64
  %arrayidx.i.i121.2 = getelementptr inbounds %class.FastBoard, %class.FastBoard* %this, i64 0, i32 5, i32 0, i64 %conv14.i120.2
  %41 = load i32, i32* %arrayidx.i.i121.2, align 4, !tbaa !18, !sourceFile !3, !mergedLineNum !4
  %cmp41.not.2 = icmp eq i32 %41, %color, !sourceFile !3, !mergedLineNum !4
  %spec.select.2 = select i1 %cmp41.not.2, i8 %opps_live.1.1, i8 0
  br label %if.end50.2

if.end50.2:                                       ; preds = %_ZN9FastBoard10get_squareEi.exit122.2, %_ZN9FastBoard10get_squareEi.exit130.2
  %opps_live.1.2 = phi i8 [ %opps_live.1.1, %_ZN9FastBoard10get_squareEi.exit130.2 ], [ %spec.select.2, %_ZN9FastBoard10get_squareEi.exit122.2 ], !sourceFile !3, !mergedLineNum !4
  %ours_die.1.2 = phi i8 [ %moved.sel94.2, %_ZN9FastBoard10get_squareEi.exit130.2 ], [ %ours_die.1.1, %_ZN9FastBoard10get_squareEi.exit122.2 ], !sourceFile !3, !mergedLineNum !4
  %42 = load i32, i32* %arrayidx.i.3, align 4, !tbaa !22, !sourceFile !3, !mergedLineNum !4
  %add30.3 = add nsw i32 %42, %i, !sourceFile !3, !mergedLineNum !4
  %cmp.i107.3 = icmp ult i32 %add30.3, 442
  br i1 %cmp.i107.3, label %_ZN5boost5arrayItLm442EEixEm.exit110.3, label %cond.false.i108, !sourceFile !3, !mergedLineNum !4

_ZN5boost5arrayItLm442EEixEm.exit110.3:           ; preds = %if.end50.2
  %conv34.3162 = zext i32 %add30.3 to i64
  %arrayidx.i109.3 = getelementptr inbounds %class.FastBoard, %class.FastBoard* %this, i64 0, i32 7, i32 0, i64 %conv34.3162
  %43 = load i16, i16* %arrayidx.i109.3, align 2, !tbaa !23, !sourceFile !3, !mergedLineNum !4
  %cmp.i111.3 = icmp ult i16 %43, 442
  br i1 %cmp.i111.3, label %_ZN5boost5arrayItLm442EEixEm.exit114.3, label %cond.false.i112, !sourceFile !3, !mergedLineNum !4

_ZN5boost5arrayItLm442EEixEm.exit114.3:           ; preds = %_ZN5boost5arrayItLm442EEixEm.exit110.3
  %conv36.3 = zext i16 %43 to i64, !sourceFile !3, !mergedLineNum !4
  %arrayidx.i113.3 = getelementptr inbounds %class.FastBoard, %class.FastBoard* %this, i64 0, i32 8, i32 0, i64 %conv36.3
  %44 = load i16, i16* %arrayidx.i113.3, align 2, !tbaa !23, !sourceFile !3, !mergedLineNum !4
  %cond.3 = icmp eq i16 %44, 0
  %45 = icmp ult i32 %add30.3, 441
  br i1 %cond.3, label %land.lhs.true.3, label %land.lhs.true45.3

land.lhs.true45.3:                                ; preds = %_ZN5boost5arrayItLm442EEixEm.exit114.3
  br i1 %45, label %land.rhs4.i126.3, label %cond.false.i123, !sourceFile !3, !mergedLineNum !4

land.rhs4.i126.3:                                 ; preds = %land.lhs.true45.3
  %cmp5.i125.3 = icmp sgt i32 %29, %add30.3, !sourceFile !3, !mergedLineNum !4
  br i1 %cmp5.i125.3, label %_ZN9FastBoard10get_squareEi.exit130.3, label %cond.false8.i127, !sourceFile !3, !mergedLineNum !4

_ZN9FastBoard10get_squareEi.exit130.3:            ; preds = %land.rhs4.i126.3
  %conv14.i128.3 = zext i32 %add30.3 to i64
  %arrayidx.i.i129.3 = getelementptr inbounds %class.FastBoard, %class.FastBoard* %this, i64 0, i32 5, i32 0, i64 %conv14.i128.3
  %46 = load i32, i32* %arrayidx.i.i129.3, align 4, !tbaa !18, !sourceFile !3, !mergedLineNum !4
  %cmp47.3 = icmp eq i32 %46, %color, !sourceFile !3, !mergedLineNum !4
  %moved.sel94.3 = select i1 %cmp47.3, i8 0, i8 %ours_die.1.2
  br label %if.end50.3

land.lhs.true.3:                                  ; preds = %_ZN5boost5arrayItLm442EEixEm.exit114.3
  br i1 %45, label %land.rhs4.i118.3, label %cond.false.i115, !sourceFile !3, !mergedLineNum !4

land.rhs4.i118.3:                                 ; preds = %land.lhs.true.3
  %cmp5.i117.3 = icmp sgt i32 %29, %add30.3, !sourceFile !3, !mergedLineNum !4
  br i1 %cmp5.i117.3, label %_ZN9FastBoard10get_squareEi.exit122.3, label %cond.false8.i119, !sourceFile !3, !mergedLineNum !4

_ZN9FastBoard10get_squareEi.exit122.3:            ; preds = %land.rhs4.i118.3
  %conv14.i120.3 = zext i32 %add30.3 to i64
  %arrayidx.i.i121.3 = getelementptr inbounds %class.FastBoard, %class.FastBoard* %this, i64 0, i32 5, i32 0, i64 %conv14.i120.3
  %47 = load i32, i32* %arrayidx.i.i121.3, align 4, !tbaa !18, !sourceFile !3, !mergedLineNum !4
  %cmp41.not.3 = icmp eq i32 %47, %color, !sourceFile !3, !mergedLineNum !4
  %spec.select.3 = select i1 %cmp41.not.3, i8 %opps_live.1.2, i8 0
  br label %if.end50.3

if.end50.3:                                       ; preds = %_ZN9FastBoard10get_squareEi.exit122.3, %_ZN9FastBoard10get_squareEi.exit130.3
  %opps_live.1.3 = phi i8 [ %opps_live.1.2, %_ZN9FastBoard10get_squareEi.exit130.3 ], [ %spec.select.3, %_ZN9FastBoard10get_squareEi.exit122.3 ], !sourceFile !3, !mergedLineNum !4
  %ours_die.1.3 = phi i8 [ %moved.sel94.3, %_ZN9FastBoard10get_squareEi.exit130.3 ], [ %ours_die.1.2, %_ZN9FastBoard10get_squareEi.exit122.3 ], !sourceFile !3, !mergedLineNum !4
  tail call void @_ZN9FastBoard16remove_neighbourEii(%class.FastBoard* nonnull align 8 dereferenceable(8052) %this, i32 %i, i32 %color), !sourceFile !3, !mergedLineNum !4
  %tobool55.not = icmp eq i8 %connecting.1.3, 0
  %merged.select = select i1 %tobool55.not, i8 %opps_live.1.3, i8 %ours_die.1.3
  %48 = icmp ne i8 %merged.select, 0
  %49 = icmp ne i8 %opps_live.1.3, 0
  %50 = select i1 %tobool55.not, i1 true, i1 %49
  %moved.sel = select i1 %50, i1 %48, i1 false
  br label %return, !sourceFile !3, !mergedLineNum !4
}

; Function Attrs: mustprogress nounwind uwtable
define dso_local i32 @_ZN9FastBoard16count_plibertiesEi(%class.FastBoard* nocapture nonnull readonly align 8 dereferenceable(8052) %this, i32 %i) local_unnamed_addr #1 align 2 {
entry:
  %cmp.i.i = icmp ult i32 %i, 441
  br i1 %cmp.i.i, label %_ZN9FastBoard16count_neighboursEii.exit, label %cond.false.i.i, !sourceFile !3, !mergedLineNum !4

cond.false.i.i:                                   ; preds = %entry
  tail call void @__assert_fail(i8* getelementptr inbounds ([24 x i8], [24 x i8]* @.str.61, i64 0, i64 0), i8* getelementptr inbounds ([18 x i8], [18 x i8]* @.str.62, i64 0, i64 0), i32 92, i8* getelementptr inbounds ([125 x i8], [125 x i8]* @__PRETTY_FUNCTION__._ZN5boost5arrayItLm441EEixEm, i64 0, i64 0)) #19, !sourceFile !3, !mergedLineNum !4
  unreachable, !sourceFile !3, !mergedLineNum !4

_ZN9FastBoard16count_neighboursEii.exit:          ; preds = %entry
  %conv9.i = zext i32 %i to i64
  %arrayidx.i.i = getelementptr inbounds %class.FastBoard, %class.FastBoard* %this, i64 0, i32 10, i32 0, i64 %conv9.i
  %0 = load i16, i16* %arrayidx.i.i, align 2, !tbaa !23, !sourceFile !3, !mergedLineNum !4
  %1 = lshr i16 %0, 8
  %2 = and i16 %1, 7
  %and.i = zext i16 %2 to i32
  ret i32 %and.i, !sourceFile !3, !mergedLineNum !4
}

; Function Attrs: mustprogress nounwind uwtable
define dso_local void @_ZN9FastBoard13add_neighbourEii(%class.FastBoard* nocapture nonnull align 8 dereferenceable(8052) %this, i32 %i, i32 %color) local_unnamed_addr #1 align 2 {
entry:
  %nbr_pars = alloca %"class.boost::array.4", align 4, !sourceFile !3, !mergedLineNum !4
  %0 = icmp ult i32 %color, 3
  br i1 %0, label %cond.end, label %cond.false, !sourceFile !3, !mergedLineNum !4

cond.false:                                       ; preds = %entry
  tail call void @__assert_fail(i8* getelementptr inbounds ([51 x i8], [51 x i8]* @.str.9, i64 0, i64 0), i8* getelementptr inbounds ([14 x i8], [14 x i8]* @.str.1, i64 0, i64 0), i32 203, i8* getelementptr inbounds ([52 x i8], [52 x i8]* @__PRETTY_FUNCTION__._ZN9FastBoard13add_neighbourEii, i64 0, i64 0)) #19, !sourceFile !3, !mergedLineNum !4
  unreachable, !sourceFile !3, !mergedLineNum !4

cond.end:                                         ; preds = %entry
  %1 = bitcast %"class.boost::array.4"* %nbr_pars to i8*, !sourceFile !3, !mergedLineNum !4
  call void @llvm.lifetime.start.p0i8(i64 16, i8* nonnull %1) #20, !sourceFile !3, !mergedLineNum !4
  %mul = shl nuw nsw i32 %color, 2
  %shl = shl nuw nsw i32 1, %mul
  %2 = trunc i32 %shl to i16
  %3 = add nsw i16 %2, -256
  %arrayidx.i60 = getelementptr inbounds %"class.boost::array.4", %"class.boost::array.4"* %nbr_pars, i64 0, i32 0, i64 0
  %arrayidx.i60.1 = getelementptr inbounds %"class.boost::array.4", %"class.boost::array.4"* %nbr_pars, i64 0, i32 0, i64 1
  %arrayidx.i60.2 = getelementptr inbounds %"class.boost::array.4", %"class.boost::array.4"* %nbr_pars, i64 0, i32 0, i64 2
  %arrayidx.i60.3 = getelementptr inbounds %"class.boost::array.4", %"class.boost::array.4"* %nbr_pars, i64 0, i32 0, i64 3
  %arrayidx.i = getelementptr inbounds %class.FastBoard, %class.FastBoard* %this, i64 0, i32 12, i32 0, i64 0
  %4 = load i32, i32* %arrayidx.i, align 8, !tbaa !22, !sourceFile !3, !mergedLineNum !4
  %add = add nsw i32 %4, %i, !sourceFile !3, !mergedLineNum !4
  %conv5 = sext i32 %add to i64, !sourceFile !3, !mergedLineNum !4
  %cmp.i55 = icmp ult i32 %add, 441
  br i1 %cmp.i55, label %_ZN5boost5arrayItLm441EEixEm.exit, label %cond.false.i56, !sourceFile !3, !mergedLineNum !4

cond.false.i56:                                   ; preds = %if.end34.2, %if.end34.1, %_ZN5boost5arrayItLm442EEixEm.exit76, %cond.end
  tail call void @__assert_fail(i8* getelementptr inbounds ([24 x i8], [24 x i8]* @.str.61, i64 0, i64 0), i8* getelementptr inbounds ([18 x i8], [18 x i8]* @.str.62, i64 0, i64 0), i32 92, i8* getelementptr inbounds ([125 x i8], [125 x i8]* @__PRETTY_FUNCTION__._ZN5boost5arrayItLm441EEixEm, i64 0, i64 0)) #19, !sourceFile !3, !mergedLineNum !4
  unreachable, !sourceFile !3, !mergedLineNum !4

_ZN5boost5arrayItLm441EEixEm.exit:                ; preds = %cond.end
  %arrayidx.i57 = getelementptr inbounds %class.FastBoard, %class.FastBoard* %this, i64 0, i32 10, i32 0, i64 %conv5
  %5 = load i16, i16* %arrayidx.i57, align 2, !tbaa !23, !sourceFile !3, !mergedLineNum !4
  %conv9 = add i16 %3, %5
  store i16 %conv9, i16* %arrayidx.i57, align 2, !tbaa !23, !sourceFile !3, !mergedLineNum !4
  %arrayidx.i64 = getelementptr inbounds %class.FastBoard, %class.FastBoard* %this, i64 0, i32 7, i32 0, i64 %conv5
  %6 = load i16, i16* %arrayidx.i64, align 2, !tbaa !23
  %arrayidx.i67 = getelementptr inbounds %class.FastBoard, %class.FastBoard* %this, i64 0, i32 7, i32 0, i64 %conv5
  %cmp.i69 = icmp ult i16 %6, 442
  br i1 %cmp.i69, label %_ZN5boost5arrayItLm442EEixEm.exit76, label %cond.false.i70, !sourceFile !3, !mergedLineNum !4

cond.false.i59:                                   ; preds = %for.body14.3.2, %for.cond11.3.3
  tail call void @__assert_fail(i8* getelementptr inbounds ([24 x i8], [24 x i8]* @.str.61, i64 0, i64 0), i8* getelementptr inbounds ([18 x i8], [18 x i8]* @.str.62, i64 0, i64 0), i32 92, i8* getelementptr inbounds ([99 x i8], [99 x i8]* @__PRETTY_FUNCTION__._ZN5boost5arrayIiLm4EEixEm, i64 0, i64 0)) #19, !sourceFile !3, !mergedLineNum !4
  unreachable, !sourceFile !3, !mergedLineNum !4

cond.false.i70:                                   ; preds = %_ZN5boost5arrayItLm442EEixEm.exit68.3, %_ZN5boost5arrayItLm442EEixEm.exit68.2, %_ZN5boost5arrayItLm442EEixEm.exit68.1, %_ZN5boost5arrayItLm441EEixEm.exit
  tail call void @__assert_fail(i8* getelementptr inbounds ([24 x i8], [24 x i8]* @.str.61, i64 0, i64 0), i8* getelementptr inbounds ([18 x i8], [18 x i8]* @.str.62, i64 0, i64 0), i32 92, i8* getelementptr inbounds ([125 x i8], [125 x i8]* @__PRETTY_FUNCTION__._ZN5boost5arrayItLm442EEixEm, i64 0, i64 0)) #19, !sourceFile !3, !mergedLineNum !4
  unreachable, !sourceFile !3, !mergedLineNum !4

_ZN5boost5arrayItLm442EEixEm.exit76:              ; preds = %_ZN5boost5arrayItLm441EEixEm.exit
  %conv25 = zext i16 %6 to i64, !sourceFile !3, !mergedLineNum !4
  %arrayidx.i71 = getelementptr inbounds %class.FastBoard, %class.FastBoard* %this, i64 0, i32 8, i32 0, i64 %conv25
  %7 = load i16, i16* %arrayidx.i71, align 2, !tbaa !23, !sourceFile !3, !mergedLineNum !4
  %dec = add i16 %7, -1, !sourceFile !3, !mergedLineNum !4
  store i16 %dec, i16* %arrayidx.i71, align 2, !tbaa !23, !sourceFile !3, !mergedLineNum !4
  %8 = load i16, i16* %arrayidx.i67, align 2, !tbaa !23, !sourceFile !3, !mergedLineNum !4
  %conv30 = zext i16 %8 to i32, !sourceFile !3, !mergedLineNum !4
  %arrayidx.i79 = getelementptr inbounds %"class.boost::array.4", %"class.boost::array.4"* %nbr_pars, i64 0, i32 0, i64 0
  store i32 %conv30, i32* %arrayidx.i79, align 4, !tbaa !22, !sourceFile !3, !mergedLineNum !4
  %arrayidx.i.1 = getelementptr inbounds %class.FastBoard, %class.FastBoard* %this, i64 0, i32 12, i32 0, i64 1
  %9 = load i32, i32* %arrayidx.i.1, align 4, !tbaa !22, !sourceFile !3, !mergedLineNum !4
  %add.1 = add nsw i32 %9, %i, !sourceFile !3, !mergedLineNum !4
  %conv5.1 = sext i32 %add.1 to i64, !sourceFile !3, !mergedLineNum !4
  %cmp.i55.1 = icmp ult i32 %add.1, 441
  br i1 %cmp.i55.1, label %_ZN5boost5arrayItLm441EEixEm.exit.1, label %cond.false.i56, !sourceFile !3, !mergedLineNum !4

cond.false.i78:                                   ; preds = %_ZN5boost5arrayItLm442EEixEm.exit76.3, %_ZN5boost5arrayItLm442EEixEm.exit76.2
  tail call void @__assert_fail(i8* getelementptr inbounds ([24 x i8], [24 x i8]* @.str.61, i64 0, i64 0), i8* getelementptr inbounds ([18 x i8], [18 x i8]* @.str.62, i64 0, i64 0), i32 92, i8* getelementptr inbounds ([99 x i8], [99 x i8]* @__PRETTY_FUNCTION__._ZN5boost5arrayIiLm4EEixEm, i64 0, i64 0)) #19, !sourceFile !3, !mergedLineNum !4
  unreachable, !sourceFile !3, !mergedLineNum !4

_ZN5boost5arrayItLm441EEixEm.exit.1:              ; preds = %_ZN5boost5arrayItLm442EEixEm.exit76
  %arrayidx.i57.1 = getelementptr inbounds %class.FastBoard, %class.FastBoard* %this, i64 0, i32 10, i32 0, i64 %conv5.1
  %10 = load i16, i16* %arrayidx.i57.1, align 2, !tbaa !23, !sourceFile !3, !mergedLineNum !4
  %conv9.1 = add i16 %3, %10
  store i16 %conv9.1, i16* %arrayidx.i57.1, align 2, !tbaa !23, !sourceFile !3, !mergedLineNum !4
  %arrayidx.i64.1 = getelementptr inbounds %class.FastBoard, %class.FastBoard* %this, i64 0, i32 7, i32 0, i64 %conv5.1
  %11 = load i16, i16* %arrayidx.i64.1, align 2, !tbaa !23
  %conv19.1 = zext i16 %11 to i32, !sourceFile !3, !mergedLineNum !4
  %12 = load i32, i32* %arrayidx.i60, align 4, !tbaa !22, !sourceFile !3, !mergedLineNum !4
  %cmp20.188 = icmp eq i32 %12, %conv19.1, !sourceFile !3, !mergedLineNum !4
  br i1 %cmp20.188, label %if.end34.1, label %_ZN5boost5arrayItLm442EEixEm.exit68.1, !sourceFile !3, !mergedLineNum !4

_ZN5boost5arrayItLm442EEixEm.exit68.1:            ; preds = %_ZN5boost5arrayItLm441EEixEm.exit.1
  %arrayidx.i67.1 = getelementptr inbounds %class.FastBoard, %class.FastBoard* %this, i64 0, i32 7, i32 0, i64 %conv5.1
  %cmp.i69.1 = icmp ult i16 %11, 442
  br i1 %cmp.i69.1, label %_ZN5boost5arrayItLm442EEixEm.exit76.1, label %cond.false.i70, !sourceFile !3, !mergedLineNum !4

_ZN5boost5arrayItLm442EEixEm.exit76.1:            ; preds = %_ZN5boost5arrayItLm442EEixEm.exit68.1
  %conv25.1 = zext i16 %11 to i64, !sourceFile !3, !mergedLineNum !4
  %arrayidx.i71.1 = getelementptr inbounds %class.FastBoard, %class.FastBoard* %this, i64 0, i32 8, i32 0, i64 %conv25.1
  %13 = load i16, i16* %arrayidx.i71.1, align 2, !tbaa !23, !sourceFile !3, !mergedLineNum !4
  %dec.1 = add i16 %13, -1, !sourceFile !3, !mergedLineNum !4
  store i16 %dec.1, i16* %arrayidx.i71.1, align 2, !tbaa !23, !sourceFile !3, !mergedLineNum !4
  %conv3287.1 = zext i32 1 to i64
  %inc31.1 = add nuw nsw i32 1, 1, !sourceFile !3, !mergedLineNum !4
  %14 = load i16, i16* %arrayidx.i67.1, align 2, !tbaa !23, !sourceFile !3, !mergedLineNum !4
  %conv30.1 = zext i16 %14 to i32, !sourceFile !3, !mergedLineNum !4
  %arrayidx.i79.1 = getelementptr inbounds %"class.boost::array.4", %"class.boost::array.4"* %nbr_pars, i64 0, i32 0, i64 %conv3287.1
  store i32 %conv30.1, i32* %arrayidx.i79.1, align 4, !tbaa !22, !sourceFile !3, !mergedLineNum !4
  br label %if.end34.1, !sourceFile !3, !mergedLineNum !4

if.end34.1:                                       ; preds = %_ZN5boost5arrayItLm442EEixEm.exit76.1, %_ZN5boost5arrayItLm441EEixEm.exit.1
  %nbr_par_cnt.1.1 = phi i32 [ %inc31.1, %_ZN5boost5arrayItLm442EEixEm.exit76.1 ], [ 1, %_ZN5boost5arrayItLm441EEixEm.exit.1 ], !sourceFile !3, !mergedLineNum !4
  %arrayidx.i.2 = getelementptr inbounds %class.FastBoard, %class.FastBoard* %this, i64 0, i32 12, i32 0, i64 2
  %15 = load i32, i32* %arrayidx.i.2, align 8, !tbaa !22, !sourceFile !3, !mergedLineNum !4
  %add.2 = add nsw i32 %15, %i, !sourceFile !3, !mergedLineNum !4
  %conv5.2 = sext i32 %add.2 to i64, !sourceFile !3, !mergedLineNum !4
  %cmp.i55.2 = icmp ult i32 %add.2, 441
  br i1 %cmp.i55.2, label %_ZN5boost5arrayItLm441EEixEm.exit.2, label %cond.false.i56, !sourceFile !3, !mergedLineNum !4

_ZN5boost5arrayItLm441EEixEm.exit.2:              ; preds = %if.end34.1
  %arrayidx.i57.2 = getelementptr inbounds %class.FastBoard, %class.FastBoard* %this, i64 0, i32 10, i32 0, i64 %conv5.2
  %16 = load i16, i16* %arrayidx.i57.2, align 2, !tbaa !23, !sourceFile !3, !mergedLineNum !4
  %conv9.2 = add i16 %3, %16
  store i16 %conv9.2, i16* %arrayidx.i57.2, align 2, !tbaa !23, !sourceFile !3, !mergedLineNum !4
  %arrayidx.i64.2 = getelementptr inbounds %class.FastBoard, %class.FastBoard* %this, i64 0, i32 7, i32 0, i64 %conv5.2
  %17 = load i16, i16* %arrayidx.i64.2, align 2, !tbaa !23
  %conv19.2 = zext i16 %17 to i32, !sourceFile !3, !mergedLineNum !4
  %18 = load i32, i32* %arrayidx.i60, align 4, !tbaa !22, !sourceFile !3, !mergedLineNum !4
  %cmp20.290 = icmp eq i32 %18, %conv19.2, !sourceFile !3, !mergedLineNum !4
  br i1 %cmp20.290, label %if.end34.2, label %for.cond11.291, !sourceFile !3, !mergedLineNum !4

for.cond11.291:                                   ; preds = %_ZN5boost5arrayItLm441EEixEm.exit.2
  %exitcond86.not.2 = icmp eq i32 %nbr_par_cnt.1.1, 1
  br i1 %exitcond86.not.2, label %_ZN5boost5arrayItLm442EEixEm.exit68.2, label %for.body14.1.2, !llvm.loop !32, !sourceFile !3, !mergedLineNum !4

for.body14.1.2:                                   ; preds = %for.cond11.291
  %19 = load i32, i32* %arrayidx.i60.1, align 4, !tbaa !22, !sourceFile !3, !mergedLineNum !4
  %cmp20.1.2 = icmp eq i32 %19, %conv19.2, !sourceFile !3, !mergedLineNum !4
  br i1 %cmp20.1.2, label %if.end34.2, label %for.cond11.1.2, !sourceFile !3, !mergedLineNum !4

for.cond11.1.2:                                   ; preds = %for.body14.1.2
  %exitcond86.1.not.2 = icmp eq i32 %nbr_par_cnt.1.1, 2
  br i1 %exitcond86.1.not.2, label %_ZN5boost5arrayItLm442EEixEm.exit68.2, label %for.body14.2.2, !llvm.loop !32, !sourceFile !3, !mergedLineNum !4

for.body14.2.2:                                   ; preds = %for.cond11.1.2
  %20 = load i32, i32* %arrayidx.i60.2, align 4, !tbaa !22, !sourceFile !3, !mergedLineNum !4
  %cmp20.2.2 = icmp eq i32 %20, %conv19.2, !sourceFile !3, !mergedLineNum !4
  br i1 %cmp20.2.2, label %if.end34.2, label %for.cond11.2.2, !sourceFile !3, !mergedLineNum !4

for.cond11.2.2:                                   ; preds = %for.body14.2.2
  %exitcond86.2.not.2 = icmp eq i32 %nbr_par_cnt.1.1, 3
  br i1 %exitcond86.2.not.2, label %_ZN5boost5arrayItLm442EEixEm.exit68.2, label %for.body14.3.2, !llvm.loop !32, !sourceFile !3, !mergedLineNum !4

for.body14.3.2:                                   ; preds = %for.cond11.2.2
  %21 = load i32, i32* %arrayidx.i60.3, align 4, !tbaa !22, !sourceFile !3, !mergedLineNum !4
  %cmp20.3.2 = icmp eq i32 %21, %conv19.2, !sourceFile !3, !mergedLineNum !4
  br i1 %cmp20.3.2, label %if.end34.2, label %cond.false.i59, !llvm.loop !32, !sourceFile !3, !mergedLineNum !4

_ZN5boost5arrayItLm442EEixEm.exit68.2:            ; preds = %for.cond11.2.2, %for.cond11.1.2, %for.cond11.291
  %arrayidx.i67.2 = getelementptr inbounds %class.FastBoard, %class.FastBoard* %this, i64 0, i32 7, i32 0, i64 %conv5.2
  %cmp.i69.2 = icmp ult i16 %17, 442
  br i1 %cmp.i69.2, label %_ZN5boost5arrayItLm442EEixEm.exit76.2, label %cond.false.i70, !sourceFile !3, !mergedLineNum !4

_ZN5boost5arrayItLm442EEixEm.exit76.2:            ; preds = %_ZN5boost5arrayItLm442EEixEm.exit68.2
  %conv25.2 = zext i16 %17 to i64, !sourceFile !3, !mergedLineNum !4
  %arrayidx.i71.2 = getelementptr inbounds %class.FastBoard, %class.FastBoard* %this, i64 0, i32 8, i32 0, i64 %conv25.2
  %22 = load i16, i16* %arrayidx.i71.2, align 2, !tbaa !23, !sourceFile !3, !mergedLineNum !4
  %dec.2 = add i16 %22, -1, !sourceFile !3, !mergedLineNum !4
  store i16 %dec.2, i16* %arrayidx.i71.2, align 2, !tbaa !23, !sourceFile !3, !mergedLineNum !4
  %cmp.i77.2 = icmp ult i32 %nbr_par_cnt.1.1, 4
  br i1 %cmp.i77.2, label %_ZN5boost5arrayIiLm4EEixEm.exit80.2, label %cond.false.i78, !sourceFile !3, !mergedLineNum !4

_ZN5boost5arrayIiLm4EEixEm.exit80.2:              ; preds = %_ZN5boost5arrayItLm442EEixEm.exit76.2
  %conv3287.2 = zext i32 %nbr_par_cnt.1.1 to i64
  %inc31.2 = add nuw nsw i32 %nbr_par_cnt.1.1, 1, !sourceFile !3, !mergedLineNum !4
  %23 = load i16, i16* %arrayidx.i67.2, align 2, !tbaa !23, !sourceFile !3, !mergedLineNum !4
  %conv30.2 = zext i16 %23 to i32, !sourceFile !3, !mergedLineNum !4
  %arrayidx.i79.2 = getelementptr inbounds %"class.boost::array.4", %"class.boost::array.4"* %nbr_pars, i64 0, i32 0, i64 %conv3287.2
  store i32 %conv30.2, i32* %arrayidx.i79.2, align 4, !tbaa !22, !sourceFile !3, !mergedLineNum !4
  br label %if.end34.2, !sourceFile !3, !mergedLineNum !4

if.end34.2:                                       ; preds = %_ZN5boost5arrayIiLm4EEixEm.exit80.2, %for.body14.3.2, %for.body14.2.2, %for.body14.1.2, %_ZN5boost5arrayItLm441EEixEm.exit.2
  %nbr_par_cnt.1.2 = phi i32 [ %inc31.2, %_ZN5boost5arrayIiLm4EEixEm.exit80.2 ], [ %nbr_par_cnt.1.1, %for.body14.3.2 ], [ %nbr_par_cnt.1.1, %for.body14.2.2 ], [ %nbr_par_cnt.1.1, %for.body14.1.2 ], [ %nbr_par_cnt.1.1, %_ZN5boost5arrayItLm441EEixEm.exit.2 ], !sourceFile !3, !mergedLineNum !4
  %arrayidx.i.3 = getelementptr inbounds %class.FastBoard, %class.FastBoard* %this, i64 0, i32 12, i32 0, i64 3
  %24 = load i32, i32* %arrayidx.i.3, align 4, !tbaa !22, !sourceFile !3, !mergedLineNum !4
  %add.3 = add nsw i32 %24, %i, !sourceFile !3, !mergedLineNum !4
  %conv5.3 = sext i32 %add.3 to i64, !sourceFile !3, !mergedLineNum !4
  %cmp.i55.3 = icmp ult i32 %add.3, 441
  br i1 %cmp.i55.3, label %_ZN5boost5arrayItLm441EEixEm.exit.3, label %cond.false.i56, !sourceFile !3, !mergedLineNum !4

_ZN5boost5arrayItLm441EEixEm.exit.3:              ; preds = %if.end34.2
  %arrayidx.i57.3 = getelementptr inbounds %class.FastBoard, %class.FastBoard* %this, i64 0, i32 10, i32 0, i64 %conv5.3
  %25 = load i16, i16* %arrayidx.i57.3, align 2, !tbaa !23, !sourceFile !3, !mergedLineNum !4
  %conv9.3 = add i16 %3, %25
  store i16 %conv9.3, i16* %arrayidx.i57.3, align 2, !tbaa !23, !sourceFile !3, !mergedLineNum !4
  %cmp1281.3 = icmp sgt i32 %nbr_par_cnt.1.2, 0, !sourceFile !3, !mergedLineNum !4
  %arrayidx.i64.3 = getelementptr inbounds %class.FastBoard, %class.FastBoard* %this, i64 0, i32 7, i32 0, i64 %conv5.3
  %26 = load i16, i16* %arrayidx.i64.3, align 2, !tbaa !23
  br i1 %cmp1281.3, label %for.body14.lr.ph.3, label %_ZN5boost5arrayItLm442EEixEm.exit68.3, !sourceFile !3, !mergedLineNum !4

for.body14.lr.ph.3:                               ; preds = %_ZN5boost5arrayItLm441EEixEm.exit.3
  %conv19.3 = zext i16 %26 to i32, !sourceFile !3, !mergedLineNum !4
  %27 = load i32, i32* %arrayidx.i60, align 4, !tbaa !22, !sourceFile !3, !mergedLineNum !4
  %cmp20.392 = icmp eq i32 %27, %conv19.3, !sourceFile !3, !mergedLineNum !4
  br i1 %cmp20.392, label %if.end34.3, label %for.cond11.393, !sourceFile !3, !mergedLineNum !4

for.cond11.393:                                   ; preds = %for.body14.lr.ph.3
  %exitcond86.not.3 = icmp eq i32 %nbr_par_cnt.1.2, 1
  br i1 %exitcond86.not.3, label %_ZN5boost5arrayItLm442EEixEm.exit68.3, label %for.body14.1.3, !llvm.loop !32, !sourceFile !3, !mergedLineNum !4

for.body14.1.3:                                   ; preds = %for.cond11.393
  %28 = load i32, i32* %arrayidx.i60.1, align 4, !tbaa !22, !sourceFile !3, !mergedLineNum !4
  %cmp20.1.3 = icmp eq i32 %28, %conv19.3, !sourceFile !3, !mergedLineNum !4
  br i1 %cmp20.1.3, label %if.end34.3, label %for.cond11.1.3, !sourceFile !3, !mergedLineNum !4

for.cond11.1.3:                                   ; preds = %for.body14.1.3
  %exitcond86.1.not.3 = icmp eq i32 %nbr_par_cnt.1.2, 2
  br i1 %exitcond86.1.not.3, label %_ZN5boost5arrayItLm442EEixEm.exit68.3, label %for.body14.2.3, !llvm.loop !32, !sourceFile !3, !mergedLineNum !4

for.body14.2.3:                                   ; preds = %for.cond11.1.3
  %29 = load i32, i32* %arrayidx.i60.2, align 4, !tbaa !22, !sourceFile !3, !mergedLineNum !4
  %cmp20.2.3 = icmp eq i32 %29, %conv19.3, !sourceFile !3, !mergedLineNum !4
  br i1 %cmp20.2.3, label %if.end34.3, label %for.cond11.2.3, !sourceFile !3, !mergedLineNum !4

for.cond11.2.3:                                   ; preds = %for.body14.2.3
  %exitcond86.2.not.3 = icmp eq i32 %nbr_par_cnt.1.2, 3
  br i1 %exitcond86.2.not.3, label %_ZN5boost5arrayItLm442EEixEm.exit68.3, label %for.body14.3.3, !llvm.loop !32, !sourceFile !3, !mergedLineNum !4

for.body14.3.3:                                   ; preds = %for.cond11.2.3
  %30 = load i32, i32* %arrayidx.i60.3, align 4, !tbaa !22, !sourceFile !3, !mergedLineNum !4
  %cmp20.3.3 = icmp eq i32 %30, %conv19.3, !sourceFile !3, !mergedLineNum !4
  br i1 %cmp20.3.3, label %if.end34.3, label %for.cond11.3.3, !sourceFile !3, !mergedLineNum !4

for.cond11.3.3:                                   ; preds = %for.body14.3.3
  %exitcond86.3.not.3 = icmp eq i32 %nbr_par_cnt.1.2, 4
  br i1 %exitcond86.3.not.3, label %_ZN5boost5arrayItLm442EEixEm.exit68.3, label %cond.false.i59, !llvm.loop !32, !sourceFile !3, !mergedLineNum !4

_ZN5boost5arrayItLm442EEixEm.exit68.3:            ; preds = %for.cond11.3.3, %for.cond11.2.3, %for.cond11.1.3, %for.cond11.393, %_ZN5boost5arrayItLm441EEixEm.exit.3
  %arrayidx.i67.3 = getelementptr inbounds %class.FastBoard, %class.FastBoard* %this, i64 0, i32 7, i32 0, i64 %conv5.3
  %cmp.i69.3 = icmp ult i16 %26, 442
  br i1 %cmp.i69.3, label %_ZN5boost5arrayItLm442EEixEm.exit76.3, label %cond.false.i70, !sourceFile !3, !mergedLineNum !4

_ZN5boost5arrayItLm442EEixEm.exit76.3:            ; preds = %_ZN5boost5arrayItLm442EEixEm.exit68.3
  %conv25.3 = zext i16 %26 to i64, !sourceFile !3, !mergedLineNum !4
  %arrayidx.i71.3 = getelementptr inbounds %class.FastBoard, %class.FastBoard* %this, i64 0, i32 8, i32 0, i64 %conv25.3
  %31 = load i16, i16* %arrayidx.i71.3, align 2, !tbaa !23, !sourceFile !3, !mergedLineNum !4
  %dec.3 = add i16 %31, -1, !sourceFile !3, !mergedLineNum !4
  store i16 %dec.3, i16* %arrayidx.i71.3, align 2, !tbaa !23, !sourceFile !3, !mergedLineNum !4
  %cmp.i77.3 = icmp ult i32 %nbr_par_cnt.1.2, 4
  br i1 %cmp.i77.3, label %_ZN5boost5arrayIiLm4EEixEm.exit80.3, label %cond.false.i78, !sourceFile !3, !mergedLineNum !4

_ZN5boost5arrayIiLm4EEixEm.exit80.3:              ; preds = %_ZN5boost5arrayItLm442EEixEm.exit76.3
  %conv3287.3 = zext i32 %nbr_par_cnt.1.2 to i64
  %32 = load i16, i16* %arrayidx.i67.3, align 2, !tbaa !23, !sourceFile !3, !mergedLineNum !4
  %conv30.3 = zext i16 %32 to i32, !sourceFile !3, !mergedLineNum !4
  %arrayidx.i79.3 = getelementptr inbounds %"class.boost::array.4", %"class.boost::array.4"* %nbr_pars, i64 0, i32 0, i64 %conv3287.3
  store i32 %conv30.3, i32* %arrayidx.i79.3, align 4, !tbaa !22, !sourceFile !3, !mergedLineNum !4
  br label %if.end34.3, !sourceFile !3, !mergedLineNum !4

if.end34.3:                                       ; preds = %_ZN5boost5arrayIiLm4EEixEm.exit80.3, %for.body14.3.3, %for.body14.2.3, %for.body14.1.3, %for.body14.lr.ph.3
  call void @llvm.lifetime.end.p0i8(i64 16, i8* nonnull %1) #20, !sourceFile !3, !mergedLineNum !4
  ret void, !sourceFile !3, !mergedLineNum !4
}

; Function Attrs: mustprogress nounwind uwtable
define dso_local void @_ZN9FastBoard16remove_neighbourEii(%class.FastBoard* nocapture nonnull align 8 dereferenceable(8052) %this, i32 %i, i32 %color) local_unnamed_addr #1 align 2 {
entry:
  %nbr_pars = alloca %"class.boost::array.4", align 4, !sourceFile !3, !mergedLineNum !4
  %0 = icmp ult i32 %color, 3
  br i1 %0, label %cond.end, label %cond.false, !sourceFile !3, !mergedLineNum !4

cond.false:                                       ; preds = %entry
  tail call void @__assert_fail(i8* getelementptr inbounds ([51 x i8], [51 x i8]* @.str.9, i64 0, i64 0), i8* getelementptr inbounds ([14 x i8], [14 x i8]* @.str.1, i64 0, i64 0), i32 228, i8* getelementptr inbounds ([55 x i8], [55 x i8]* @__PRETTY_FUNCTION__._ZN9FastBoard16remove_neighbourEii, i64 0, i64 0)) #19, !sourceFile !3, !mergedLineNum !4
  unreachable, !sourceFile !3, !mergedLineNum !4

cond.end:                                         ; preds = %entry
  %1 = bitcast %"class.boost::array.4"* %nbr_pars to i8*, !sourceFile !3, !mergedLineNum !4
  call void @llvm.lifetime.start.p0i8(i64 16, i8* nonnull %1) #20, !sourceFile !3, !mergedLineNum !4
  %mul = shl nuw nsw i32 %color, 2
  %shl.neg = shl nsw i32 -1, %mul
  %2 = trunc i32 %shl.neg to i16
  %3 = add i16 %2, 256
  %arrayidx.i61 = getelementptr inbounds %"class.boost::array.4", %"class.boost::array.4"* %nbr_pars, i64 0, i32 0, i64 0
  %arrayidx.i61.1 = getelementptr inbounds %"class.boost::array.4", %"class.boost::array.4"* %nbr_pars, i64 0, i32 0, i64 1
  %arrayidx.i61.2 = getelementptr inbounds %"class.boost::array.4", %"class.boost::array.4"* %nbr_pars, i64 0, i32 0, i64 2
  %arrayidx.i61.3 = getelementptr inbounds %"class.boost::array.4", %"class.boost::array.4"* %nbr_pars, i64 0, i32 0, i64 3
  %arrayidx.i = getelementptr inbounds %class.FastBoard, %class.FastBoard* %this, i64 0, i32 12, i32 0, i64 0
  %4 = load i32, i32* %arrayidx.i, align 8, !tbaa !22, !sourceFile !3, !mergedLineNum !4
  %add = add nsw i32 %4, %i, !sourceFile !3, !mergedLineNum !4
  %conv5 = sext i32 %add to i64, !sourceFile !3, !mergedLineNum !4
  %cmp.i56 = icmp ult i32 %add, 441
  br i1 %cmp.i56, label %_ZN5boost5arrayItLm441EEixEm.exit, label %cond.false.i57, !sourceFile !3, !mergedLineNum !4

cond.false.i57:                                   ; preds = %if.end35.2, %if.end35.1, %_ZN5boost5arrayItLm442EEixEm.exit77, %cond.end
  tail call void @__assert_fail(i8* getelementptr inbounds ([24 x i8], [24 x i8]* @.str.61, i64 0, i64 0), i8* getelementptr inbounds ([18 x i8], [18 x i8]* @.str.62, i64 0, i64 0), i32 92, i8* getelementptr inbounds ([125 x i8], [125 x i8]* @__PRETTY_FUNCTION__._ZN5boost5arrayItLm441EEixEm, i64 0, i64 0)) #19, !sourceFile !3, !mergedLineNum !4
  unreachable, !sourceFile !3, !mergedLineNum !4

_ZN5boost5arrayItLm441EEixEm.exit:                ; preds = %cond.end
  %arrayidx.i58 = getelementptr inbounds %class.FastBoard, %class.FastBoard* %this, i64 0, i32 10, i32 0, i64 %conv5
  %5 = load i16, i16* %arrayidx.i58, align 2, !tbaa !23, !sourceFile !3, !mergedLineNum !4
  %conv9 = add i16 %3, %5
  store i16 %conv9, i16* %arrayidx.i58, align 2, !tbaa !23, !sourceFile !3, !mergedLineNum !4
  %arrayidx.i65 = getelementptr inbounds %class.FastBoard, %class.FastBoard* %this, i64 0, i32 7, i32 0, i64 %conv5
  %6 = load i16, i16* %arrayidx.i65, align 2, !tbaa !23
  %arrayidx.i68 = getelementptr inbounds %class.FastBoard, %class.FastBoard* %this, i64 0, i32 7, i32 0, i64 %conv5
  %cmp.i70 = icmp ult i16 %6, 442
  br i1 %cmp.i70, label %_ZN5boost5arrayItLm442EEixEm.exit77, label %cond.false.i71, !sourceFile !3, !mergedLineNum !4

cond.false.i60:                                   ; preds = %for.body14.3.2, %for.cond11.3.3
  tail call void @__assert_fail(i8* getelementptr inbounds ([24 x i8], [24 x i8]* @.str.61, i64 0, i64 0), i8* getelementptr inbounds ([18 x i8], [18 x i8]* @.str.62, i64 0, i64 0), i32 92, i8* getelementptr inbounds ([99 x i8], [99 x i8]* @__PRETTY_FUNCTION__._ZN5boost5arrayIiLm4EEixEm, i64 0, i64 0)) #19, !sourceFile !3, !mergedLineNum !4
  unreachable, !sourceFile !3, !mergedLineNum !4

cond.false.i71:                                   ; preds = %_ZN5boost5arrayItLm442EEixEm.exit69.3, %_ZN5boost5arrayItLm442EEixEm.exit69.2, %_ZN5boost5arrayItLm442EEixEm.exit69.1, %_ZN5boost5arrayItLm441EEixEm.exit
  tail call void @__assert_fail(i8* getelementptr inbounds ([24 x i8], [24 x i8]* @.str.61, i64 0, i64 0), i8* getelementptr inbounds ([18 x i8], [18 x i8]* @.str.62, i64 0, i64 0), i32 92, i8* getelementptr inbounds ([125 x i8], [125 x i8]* @__PRETTY_FUNCTION__._ZN5boost5arrayItLm442EEixEm, i64 0, i64 0)) #19, !sourceFile !3, !mergedLineNum !4
  unreachable, !sourceFile !3, !mergedLineNum !4

_ZN5boost5arrayItLm442EEixEm.exit77:              ; preds = %_ZN5boost5arrayItLm441EEixEm.exit
  %conv25 = zext i16 %6 to i64, !sourceFile !3, !mergedLineNum !4
  %arrayidx.i72 = getelementptr inbounds %class.FastBoard, %class.FastBoard* %this, i64 0, i32 8, i32 0, i64 %conv25
  %7 = load i16, i16* %arrayidx.i72, align 2, !tbaa !23, !sourceFile !3, !mergedLineNum !4
  %inc27 = add i16 %7, 1, !sourceFile !3, !mergedLineNum !4
  store i16 %inc27, i16* %arrayidx.i72, align 2, !tbaa !23, !sourceFile !3, !mergedLineNum !4
  %8 = load i16, i16* %arrayidx.i68, align 2, !tbaa !23, !sourceFile !3, !mergedLineNum !4
  %conv31 = zext i16 %8 to i32, !sourceFile !3, !mergedLineNum !4
  %arrayidx.i80 = getelementptr inbounds %"class.boost::array.4", %"class.boost::array.4"* %nbr_pars, i64 0, i32 0, i64 0
  store i32 %conv31, i32* %arrayidx.i80, align 4, !tbaa !22, !sourceFile !3, !mergedLineNum !4
  %arrayidx.i.1 = getelementptr inbounds %class.FastBoard, %class.FastBoard* %this, i64 0, i32 12, i32 0, i64 1
  %9 = load i32, i32* %arrayidx.i.1, align 4, !tbaa !22, !sourceFile !3, !mergedLineNum !4
  %add.1 = add nsw i32 %9, %i, !sourceFile !3, !mergedLineNum !4
  %conv5.1 = sext i32 %add.1 to i64, !sourceFile !3, !mergedLineNum !4
  %cmp.i56.1 = icmp ult i32 %add.1, 441
  br i1 %cmp.i56.1, label %_ZN5boost5arrayItLm441EEixEm.exit.1, label %cond.false.i57, !sourceFile !3, !mergedLineNum !4

cond.false.i79:                                   ; preds = %_ZN5boost5arrayItLm442EEixEm.exit77.3, %_ZN5boost5arrayItLm442EEixEm.exit77.2
  tail call void @__assert_fail(i8* getelementptr inbounds ([24 x i8], [24 x i8]* @.str.61, i64 0, i64 0), i8* getelementptr inbounds ([18 x i8], [18 x i8]* @.str.62, i64 0, i64 0), i32 92, i8* getelementptr inbounds ([99 x i8], [99 x i8]* @__PRETTY_FUNCTION__._ZN5boost5arrayIiLm4EEixEm, i64 0, i64 0)) #19, !sourceFile !3, !mergedLineNum !4
  unreachable, !sourceFile !3, !mergedLineNum !4

_ZN5boost5arrayItLm441EEixEm.exit.1:              ; preds = %_ZN5boost5arrayItLm442EEixEm.exit77
  %arrayidx.i58.1 = getelementptr inbounds %class.FastBoard, %class.FastBoard* %this, i64 0, i32 10, i32 0, i64 %conv5.1
  %10 = load i16, i16* %arrayidx.i58.1, align 2, !tbaa !23, !sourceFile !3, !mergedLineNum !4
  %conv9.1 = add i16 %3, %10
  store i16 %conv9.1, i16* %arrayidx.i58.1, align 2, !tbaa !23, !sourceFile !3, !mergedLineNum !4
  %arrayidx.i65.1 = getelementptr inbounds %class.FastBoard, %class.FastBoard* %this, i64 0, i32 7, i32 0, i64 %conv5.1
  %11 = load i16, i16* %arrayidx.i65.1, align 2, !tbaa !23
  %conv19.1 = zext i16 %11 to i32, !sourceFile !3, !mergedLineNum !4
  %12 = load i32, i32* %arrayidx.i61, align 4, !tbaa !22, !sourceFile !3, !mergedLineNum !4
  %cmp20.189 = icmp eq i32 %12, %conv19.1, !sourceFile !3, !mergedLineNum !4
  br i1 %cmp20.189, label %if.end35.1, label %_ZN5boost5arrayItLm442EEixEm.exit69.1, !sourceFile !3, !mergedLineNum !4

_ZN5boost5arrayItLm442EEixEm.exit69.1:            ; preds = %_ZN5boost5arrayItLm441EEixEm.exit.1
  %arrayidx.i68.1 = getelementptr inbounds %class.FastBoard, %class.FastBoard* %this, i64 0, i32 7, i32 0, i64 %conv5.1
  %cmp.i70.1 = icmp ult i16 %11, 442
  br i1 %cmp.i70.1, label %_ZN5boost5arrayItLm442EEixEm.exit77.1, label %cond.false.i71, !sourceFile !3, !mergedLineNum !4

_ZN5boost5arrayItLm442EEixEm.exit77.1:            ; preds = %_ZN5boost5arrayItLm442EEixEm.exit69.1
  %conv25.1 = zext i16 %11 to i64, !sourceFile !3, !mergedLineNum !4
  %arrayidx.i72.1 = getelementptr inbounds %class.FastBoard, %class.FastBoard* %this, i64 0, i32 8, i32 0, i64 %conv25.1
  %13 = load i16, i16* %arrayidx.i72.1, align 2, !tbaa !23, !sourceFile !3, !mergedLineNum !4
  %inc27.1 = add i16 %13, 1, !sourceFile !3, !mergedLineNum !4
  store i16 %inc27.1, i16* %arrayidx.i72.1, align 2, !tbaa !23, !sourceFile !3, !mergedLineNum !4
  %conv3388.1 = zext i32 1 to i64
  %inc32.1 = add nuw nsw i32 1, 1, !sourceFile !3, !mergedLineNum !4
  %14 = load i16, i16* %arrayidx.i68.1, align 2, !tbaa !23, !sourceFile !3, !mergedLineNum !4
  %conv31.1 = zext i16 %14 to i32, !sourceFile !3, !mergedLineNum !4
  %arrayidx.i80.1 = getelementptr inbounds %"class.boost::array.4", %"class.boost::array.4"* %nbr_pars, i64 0, i32 0, i64 %conv3388.1
  store i32 %conv31.1, i32* %arrayidx.i80.1, align 4, !tbaa !22, !sourceFile !3, !mergedLineNum !4
  br label %if.end35.1, !sourceFile !3, !mergedLineNum !4

if.end35.1:                                       ; preds = %_ZN5boost5arrayItLm442EEixEm.exit77.1, %_ZN5boost5arrayItLm441EEixEm.exit.1
  %nbr_par_cnt.1.1 = phi i32 [ %inc32.1, %_ZN5boost5arrayItLm442EEixEm.exit77.1 ], [ 1, %_ZN5boost5arrayItLm441EEixEm.exit.1 ], !sourceFile !3, !mergedLineNum !4
  %arrayidx.i.2 = getelementptr inbounds %class.FastBoard, %class.FastBoard* %this, i64 0, i32 12, i32 0, i64 2
  %15 = load i32, i32* %arrayidx.i.2, align 8, !tbaa !22, !sourceFile !3, !mergedLineNum !4
  %add.2 = add nsw i32 %15, %i, !sourceFile !3, !mergedLineNum !4
  %conv5.2 = sext i32 %add.2 to i64, !sourceFile !3, !mergedLineNum !4
  %cmp.i56.2 = icmp ult i32 %add.2, 441
  br i1 %cmp.i56.2, label %_ZN5boost5arrayItLm441EEixEm.exit.2, label %cond.false.i57, !sourceFile !3, !mergedLineNum !4

_ZN5boost5arrayItLm441EEixEm.exit.2:              ; preds = %if.end35.1
  %arrayidx.i58.2 = getelementptr inbounds %class.FastBoard, %class.FastBoard* %this, i64 0, i32 10, i32 0, i64 %conv5.2
  %16 = load i16, i16* %arrayidx.i58.2, align 2, !tbaa !23, !sourceFile !3, !mergedLineNum !4
  %conv9.2 = add i16 %3, %16
  store i16 %conv9.2, i16* %arrayidx.i58.2, align 2, !tbaa !23, !sourceFile !3, !mergedLineNum !4
  %arrayidx.i65.2 = getelementptr inbounds %class.FastBoard, %class.FastBoard* %this, i64 0, i32 7, i32 0, i64 %conv5.2
  %17 = load i16, i16* %arrayidx.i65.2, align 2, !tbaa !23
  %conv19.2 = zext i16 %17 to i32, !sourceFile !3, !mergedLineNum !4
  %18 = load i32, i32* %arrayidx.i61, align 4, !tbaa !22, !sourceFile !3, !mergedLineNum !4
  %cmp20.291 = icmp eq i32 %18, %conv19.2, !sourceFile !3, !mergedLineNum !4
  br i1 %cmp20.291, label %if.end35.2, label %for.cond11.292, !sourceFile !3, !mergedLineNum !4

for.cond11.292:                                   ; preds = %_ZN5boost5arrayItLm441EEixEm.exit.2
  %exitcond87.not.2 = icmp eq i32 %nbr_par_cnt.1.1, 1
  br i1 %exitcond87.not.2, label %_ZN5boost5arrayItLm442EEixEm.exit69.2, label %for.body14.1.2, !llvm.loop !33, !sourceFile !3, !mergedLineNum !4

for.body14.1.2:                                   ; preds = %for.cond11.292
  %19 = load i32, i32* %arrayidx.i61.1, align 4, !tbaa !22, !sourceFile !3, !mergedLineNum !4
  %cmp20.1.2 = icmp eq i32 %19, %conv19.2, !sourceFile !3, !mergedLineNum !4
  br i1 %cmp20.1.2, label %if.end35.2, label %for.cond11.1.2, !sourceFile !3, !mergedLineNum !4

for.cond11.1.2:                                   ; preds = %for.body14.1.2
  %exitcond87.1.not.2 = icmp eq i32 %nbr_par_cnt.1.1, 2
  br i1 %exitcond87.1.not.2, label %_ZN5boost5arrayItLm442EEixEm.exit69.2, label %for.body14.2.2, !llvm.loop !33, !sourceFile !3, !mergedLineNum !4

for.body14.2.2:                                   ; preds = %for.cond11.1.2
  %20 = load i32, i32* %arrayidx.i61.2, align 4, !tbaa !22, !sourceFile !3, !mergedLineNum !4
  %cmp20.2.2 = icmp eq i32 %20, %conv19.2, !sourceFile !3, !mergedLineNum !4
  br i1 %cmp20.2.2, label %if.end35.2, label %for.cond11.2.2, !sourceFile !3, !mergedLineNum !4

for.cond11.2.2:                                   ; preds = %for.body14.2.2
  %exitcond87.2.not.2 = icmp eq i32 %nbr_par_cnt.1.1, 3
  br i1 %exitcond87.2.not.2, label %_ZN5boost5arrayItLm442EEixEm.exit69.2, label %for.body14.3.2, !llvm.loop !33, !sourceFile !3, !mergedLineNum !4

for.body14.3.2:                                   ; preds = %for.cond11.2.2
  %21 = load i32, i32* %arrayidx.i61.3, align 4, !tbaa !22, !sourceFile !3, !mergedLineNum !4
  %cmp20.3.2 = icmp eq i32 %21, %conv19.2, !sourceFile !3, !mergedLineNum !4
  br i1 %cmp20.3.2, label %if.end35.2, label %cond.false.i60, !llvm.loop !33, !sourceFile !3, !mergedLineNum !4

_ZN5boost5arrayItLm442EEixEm.exit69.2:            ; preds = %for.cond11.2.2, %for.cond11.1.2, %for.cond11.292
  %arrayidx.i68.2 = getelementptr inbounds %class.FastBoard, %class.FastBoard* %this, i64 0, i32 7, i32 0, i64 %conv5.2
  %cmp.i70.2 = icmp ult i16 %17, 442
  br i1 %cmp.i70.2, label %_ZN5boost5arrayItLm442EEixEm.exit77.2, label %cond.false.i71, !sourceFile !3, !mergedLineNum !4

_ZN5boost5arrayItLm442EEixEm.exit77.2:            ; preds = %_ZN5boost5arrayItLm442EEixEm.exit69.2
  %conv25.2 = zext i16 %17 to i64, !sourceFile !3, !mergedLineNum !4
  %arrayidx.i72.2 = getelementptr inbounds %class.FastBoard, %class.FastBoard* %this, i64 0, i32 8, i32 0, i64 %conv25.2
  %22 = load i16, i16* %arrayidx.i72.2, align 2, !tbaa !23, !sourceFile !3, !mergedLineNum !4
  %inc27.2 = add i16 %22, 1, !sourceFile !3, !mergedLineNum !4
  store i16 %inc27.2, i16* %arrayidx.i72.2, align 2, !tbaa !23, !sourceFile !3, !mergedLineNum !4
  %cmp.i78.2 = icmp ult i32 %nbr_par_cnt.1.1, 4
  br i1 %cmp.i78.2, label %_ZN5boost5arrayIiLm4EEixEm.exit81.2, label %cond.false.i79, !sourceFile !3, !mergedLineNum !4

_ZN5boost5arrayIiLm4EEixEm.exit81.2:              ; preds = %_ZN5boost5arrayItLm442EEixEm.exit77.2
  %conv3388.2 = zext i32 %nbr_par_cnt.1.1 to i64
  %inc32.2 = add nuw nsw i32 %nbr_par_cnt.1.1, 1, !sourceFile !3, !mergedLineNum !4
  %23 = load i16, i16* %arrayidx.i68.2, align 2, !tbaa !23, !sourceFile !3, !mergedLineNum !4
  %conv31.2 = zext i16 %23 to i32, !sourceFile !3, !mergedLineNum !4
  %arrayidx.i80.2 = getelementptr inbounds %"class.boost::array.4", %"class.boost::array.4"* %nbr_pars, i64 0, i32 0, i64 %conv3388.2
  store i32 %conv31.2, i32* %arrayidx.i80.2, align 4, !tbaa !22, !sourceFile !3, !mergedLineNum !4
  br label %if.end35.2, !sourceFile !3, !mergedLineNum !4

if.end35.2:                                       ; preds = %_ZN5boost5arrayIiLm4EEixEm.exit81.2, %for.body14.3.2, %for.body14.2.2, %for.body14.1.2, %_ZN5boost5arrayItLm441EEixEm.exit.2
  %nbr_par_cnt.1.2 = phi i32 [ %inc32.2, %_ZN5boost5arrayIiLm4EEixEm.exit81.2 ], [ %nbr_par_cnt.1.1, %for.body14.3.2 ], [ %nbr_par_cnt.1.1, %for.body14.2.2 ], [ %nbr_par_cnt.1.1, %for.body14.1.2 ], [ %nbr_par_cnt.1.1, %_ZN5boost5arrayItLm441EEixEm.exit.2 ], !sourceFile !3, !mergedLineNum !4
  %arrayidx.i.3 = getelementptr inbounds %class.FastBoard, %class.FastBoard* %this, i64 0, i32 12, i32 0, i64 3
  %24 = load i32, i32* %arrayidx.i.3, align 4, !tbaa !22, !sourceFile !3, !mergedLineNum !4
  %add.3 = add nsw i32 %24, %i, !sourceFile !3, !mergedLineNum !4
  %conv5.3 = sext i32 %add.3 to i64, !sourceFile !3, !mergedLineNum !4
  %cmp.i56.3 = icmp ult i32 %add.3, 441
  br i1 %cmp.i56.3, label %_ZN5boost5arrayItLm441EEixEm.exit.3, label %cond.false.i57, !sourceFile !3, !mergedLineNum !4

_ZN5boost5arrayItLm441EEixEm.exit.3:              ; preds = %if.end35.2
  %arrayidx.i58.3 = getelementptr inbounds %class.FastBoard, %class.FastBoard* %this, i64 0, i32 10, i32 0, i64 %conv5.3
  %25 = load i16, i16* %arrayidx.i58.3, align 2, !tbaa !23, !sourceFile !3, !mergedLineNum !4
  %conv9.3 = add i16 %3, %25
  store i16 %conv9.3, i16* %arrayidx.i58.3, align 2, !tbaa !23, !sourceFile !3, !mergedLineNum !4
  %cmp1282.3 = icmp sgt i32 %nbr_par_cnt.1.2, 0, !sourceFile !3, !mergedLineNum !4
  %arrayidx.i65.3 = getelementptr inbounds %class.FastBoard, %class.FastBoard* %this, i64 0, i32 7, i32 0, i64 %conv5.3
  %26 = load i16, i16* %arrayidx.i65.3, align 2, !tbaa !23
  br i1 %cmp1282.3, label %for.body14.lr.ph.3, label %_ZN5boost5arrayItLm442EEixEm.exit69.3, !sourceFile !3, !mergedLineNum !4

for.body14.lr.ph.3:                               ; preds = %_ZN5boost5arrayItLm441EEixEm.exit.3
  %conv19.3 = zext i16 %26 to i32, !sourceFile !3, !mergedLineNum !4
  %27 = load i32, i32* %arrayidx.i61, align 4, !tbaa !22, !sourceFile !3, !mergedLineNum !4
  %cmp20.393 = icmp eq i32 %27, %conv19.3, !sourceFile !3, !mergedLineNum !4
  br i1 %cmp20.393, label %if.end35.3, label %for.cond11.394, !sourceFile !3, !mergedLineNum !4

for.cond11.394:                                   ; preds = %for.body14.lr.ph.3
  %exitcond87.not.3 = icmp eq i32 %nbr_par_cnt.1.2, 1
  br i1 %exitcond87.not.3, label %_ZN5boost5arrayItLm442EEixEm.exit69.3, label %for.body14.1.3, !llvm.loop !33, !sourceFile !3, !mergedLineNum !4

for.body14.1.3:                                   ; preds = %for.cond11.394
  %28 = load i32, i32* %arrayidx.i61.1, align 4, !tbaa !22, !sourceFile !3, !mergedLineNum !4
  %cmp20.1.3 = icmp eq i32 %28, %conv19.3, !sourceFile !3, !mergedLineNum !4
  br i1 %cmp20.1.3, label %if.end35.3, label %for.cond11.1.3, !sourceFile !3, !mergedLineNum !4

for.cond11.1.3:                                   ; preds = %for.body14.1.3
  %exitcond87.1.not.3 = icmp eq i32 %nbr_par_cnt.1.2, 2
  br i1 %exitcond87.1.not.3, label %_ZN5boost5arrayItLm442EEixEm.exit69.3, label %for.body14.2.3, !llvm.loop !33, !sourceFile !3, !mergedLineNum !4

for.body14.2.3:                                   ; preds = %for.cond11.1.3
  %29 = load i32, i32* %arrayidx.i61.2, align 4, !tbaa !22, !sourceFile !3, !mergedLineNum !4
  %cmp20.2.3 = icmp eq i32 %29, %conv19.3, !sourceFile !3, !mergedLineNum !4
  br i1 %cmp20.2.3, label %if.end35.3, label %for.cond11.2.3, !sourceFile !3, !mergedLineNum !4

for.cond11.2.3:                                   ; preds = %for.body14.2.3
  %exitcond87.2.not.3 = icmp eq i32 %nbr_par_cnt.1.2, 3
  br i1 %exitcond87.2.not.3, label %_ZN5boost5arrayItLm442EEixEm.exit69.3, label %for.body14.3.3, !llvm.loop !33, !sourceFile !3, !mergedLineNum !4

for.body14.3.3:                                   ; preds = %for.cond11.2.3
  %30 = load i32, i32* %arrayidx.i61.3, align 4, !tbaa !22, !sourceFile !3, !mergedLineNum !4
  %cmp20.3.3 = icmp eq i32 %30, %conv19.3, !sourceFile !3, !mergedLineNum !4
  br i1 %cmp20.3.3, label %if.end35.3, label %for.cond11.3.3, !sourceFile !3, !mergedLineNum !4

for.cond11.3.3:                                   ; preds = %for.body14.3.3
  %exitcond87.3.not.3 = icmp eq i32 %nbr_par_cnt.1.2, 4
  br i1 %exitcond87.3.not.3, label %_ZN5boost5arrayItLm442EEixEm.exit69.3, label %cond.false.i60, !llvm.loop !33, !sourceFile !3, !mergedLineNum !4

_ZN5boost5arrayItLm442EEixEm.exit69.3:            ; preds = %for.cond11.3.3, %for.cond11.2.3, %for.cond11.1.3, %for.cond11.394, %_ZN5boost5arrayItLm441EEixEm.exit.3
  %arrayidx.i68.3 = getelementptr inbounds %class.FastBoard, %class.FastBoard* %this, i64 0, i32 7, i32 0, i64 %conv5.3
  %cmp.i70.3 = icmp ult i16 %26, 442
  br i1 %cmp.i70.3, label %_ZN5boost5arrayItLm442EEixEm.exit77.3, label %cond.false.i71, !sourceFile !3, !mergedLineNum !4

_ZN5boost5arrayItLm442EEixEm.exit77.3:            ; preds = %_ZN5boost5arrayItLm442EEixEm.exit69.3
  %conv25.3 = zext i16 %26 to i64, !sourceFile !3, !mergedLineNum !4
  %arrayidx.i72.3 = getelementptr inbounds %class.FastBoard, %class.FastBoard* %this, i64 0, i32 8, i32 0, i64 %conv25.3
  %31 = load i16, i16* %arrayidx.i72.3, align 2, !tbaa !23, !sourceFile !3, !mergedLineNum !4
  %inc27.3 = add i16 %31, 1, !sourceFile !3, !mergedLineNum !4
  store i16 %inc27.3, i16* %arrayidx.i72.3, align 2, !tbaa !23, !sourceFile !3, !mergedLineNum !4
  %cmp.i78.3 = icmp ult i32 %nbr_par_cnt.1.2, 4
  br i1 %cmp.i78.3, label %_ZN5boost5arrayIiLm4EEixEm.exit81.3, label %cond.false.i79, !sourceFile !3, !mergedLineNum !4

_ZN5boost5arrayIiLm4EEixEm.exit81.3:              ; preds = %_ZN5boost5arrayItLm442EEixEm.exit77.3
  %conv3388.3 = zext i32 %nbr_par_cnt.1.2 to i64
  %32 = load i16, i16* %arrayidx.i68.3, align 2, !tbaa !23, !sourceFile !3, !mergedLineNum !4
  %conv31.3 = zext i16 %32 to i32, !sourceFile !3, !mergedLineNum !4
  %arrayidx.i80.3 = getelementptr inbounds %"class.boost::array.4", %"class.boost::array.4"* %nbr_pars, i64 0, i32 0, i64 %conv3388.3
  store i32 %conv31.3, i32* %arrayidx.i80.3, align 4, !tbaa !22, !sourceFile !3, !mergedLineNum !4
  br label %if.end35.3, !sourceFile !3, !mergedLineNum !4

if.end35.3:                                       ; preds = %_ZN5boost5arrayIiLm4EEixEm.exit81.3, %for.body14.3.3, %for.body14.2.3, %for.body14.1.3, %for.body14.lr.ph.3
  call void @llvm.lifetime.end.p0i8(i64 16, i8* nonnull %1) #20, !sourceFile !3, !mergedLineNum !4
  ret void, !sourceFile !3, !mergedLineNum !4
}

; Function Attrs: mustprogress nounwind uwtable
define dso_local i32 @_ZN9FastBoard16count_neighboursEii(%class.FastBoard* nocapture nonnull readonly align 8 dereferenceable(8052) %this, i32 %c, i32 %v) local_unnamed_addr #1 align 2 {
entry:
  %0 = icmp ult i32 %c, 3
  br i1 %0, label %cond.end, label %cond.false, !sourceFile !3, !mergedLineNum !4

cond.false:                                       ; preds = %entry
  tail call void @__assert_fail(i8* getelementptr inbounds ([39 x i8], [39 x i8]* @.str.8, i64 0, i64 0), i8* getelementptr inbounds ([14 x i8], [14 x i8]* @.str.1, i64 0, i64 0), i32 185, i8* getelementptr inbounds ([54 x i8], [54 x i8]* @__PRETTY_FUNCTION__._ZN9FastBoard16count_neighboursEii, i64 0, i64 0)) #19, !sourceFile !3, !mergedLineNum !4
  unreachable, !sourceFile !3, !mergedLineNum !4

cond.end:                                         ; preds = %entry
  %cmp.i = icmp ult i32 %v, 441
  br i1 %cmp.i, label %_ZN5boost5arrayItLm441EEixEm.exit, label %cond.false.i, !sourceFile !3, !mergedLineNum !4

cond.false.i:                                     ; preds = %cond.end
  tail call void @__assert_fail(i8* getelementptr inbounds ([24 x i8], [24 x i8]* @.str.61, i64 0, i64 0), i8* getelementptr inbounds ([18 x i8], [18 x i8]* @.str.62, i64 0, i64 0), i32 92, i8* getelementptr inbounds ([125 x i8], [125 x i8]* @__PRETTY_FUNCTION__._ZN5boost5arrayItLm441EEixEm, i64 0, i64 0)) #19, !sourceFile !3, !mergedLineNum !4
  unreachable, !sourceFile !3, !mergedLineNum !4

_ZN5boost5arrayItLm441EEixEm.exit:                ; preds = %cond.end
  %conv9 = zext i32 %v to i64
  %arrayidx.i = getelementptr inbounds %class.FastBoard, %class.FastBoard* %this, i64 0, i32 10, i32 0, i64 %conv9
  %1 = load i16, i16* %arrayidx.i, align 2, !tbaa !23, !sourceFile !3, !mergedLineNum !4
  %conv4 = zext i16 %1 to i32, !sourceFile !3, !mergedLineNum !4
  %mul = shl nuw nsw i32 %c, 2
  %shr = lshr i32 %conv4, %mul
  %and = and i32 %shr, 7, !sourceFile !3, !mergedLineNum !4
  ret i32 %and, !sourceFile !3, !mergedLineNum !4
}

; Function Attrs: mustprogress nounwind uwtable
define dso_local i32 @_ZN9FastBoard15fast_ss_suicideEii(%class.FastBoard* nocapture nonnull readonly align 8 dereferenceable(8052) %this, i32 %color, i32 %i) local_unnamed_addr #1 align 2 {
entry:
  %cmp.i = icmp ult i32 %i, 441
  br i1 %cmp.i, label %_ZN5boost5arrayItLm441EEixEm.exit, label %cond.false.i, !sourceFile !3, !mergedLineNum !4

cond.false.i:                                     ; preds = %entry
  tail call void @__assert_fail(i8* getelementptr inbounds ([24 x i8], [24 x i8]* @.str.61, i64 0, i64 0), i8* getelementptr inbounds ([18 x i8], [18 x i8]* @.str.62, i64 0, i64 0), i32 92, i8* getelementptr inbounds ([125 x i8], [125 x i8]* @__PRETTY_FUNCTION__._ZN5boost5arrayItLm441EEixEm, i64 0, i64 0)) #19, !sourceFile !3, !mergedLineNum !4
  unreachable, !sourceFile !3, !mergedLineNum !4

_ZN5boost5arrayItLm441EEixEm.exit:                ; preds = %entry
  %conv86 = zext i32 %i to i64
  %arrayidx.i = getelementptr inbounds %class.FastBoard, %class.FastBoard* %this, i64 0, i32 10, i32 0, i64 %conv86
  %0 = load i16, i16* %arrayidx.i, align 2, !tbaa !23, !sourceFile !3, !mergedLineNum !4
  %conv2 = zext i16 %0 to i32, !sourceFile !3, !mergedLineNum !4
  %tobool.not = icmp eq i32 %color, 0, !sourceFile !3, !mergedLineNum !4
  %conv3 = zext i1 %tobool.not to i64, !sourceFile !3, !mergedLineNum !4
  %arrayidx.i54 = getelementptr inbounds %"class.boost::array", %"class.boost::array"* @_ZN9FastBoard9s_eyemaskE, i64 0, i32 0, i64 %conv3
  %1 = load i32, i32* %arrayidx.i54, align 4, !tbaa !22, !sourceFile !3, !mergedLineNum !4
  %and = and i32 %1, %conv2, !sourceFile !3, !mergedLineNum !4
  %tobool5.not = icmp eq i32 %and, 0, !sourceFile !3, !mergedLineNum !4
  br i1 %tobool5.not, label %cleanup, label %if.end, !sourceFile !3, !mergedLineNum !4

if.end:                                           ; preds = %_ZN5boost5arrayItLm441EEixEm.exit
  %sub = add nsw i32 %i, -1
  %cmp.i55 = icmp ult i32 %sub, 442
  br i1 %cmp.i55, label %_ZN5boost5arrayItLm442EEixEm.exit, label %cond.false.i56, !sourceFile !3, !mergedLineNum !4

cond.false.i56:                                   ; preds = %if.end
  tail call void @__assert_fail(i8* getelementptr inbounds ([24 x i8], [24 x i8]* @.str.61, i64 0, i64 0), i8* getelementptr inbounds ([18 x i8], [18 x i8]* @.str.62, i64 0, i64 0), i32 92, i8* getelementptr inbounds ([125 x i8], [125 x i8]* @__PRETTY_FUNCTION__._ZN5boost5arrayItLm442EEixEm, i64 0, i64 0)) #19, !sourceFile !3, !mergedLineNum !4
  unreachable, !sourceFile !3, !mergedLineNum !4

_ZN5boost5arrayItLm442EEixEm.exit:                ; preds = %if.end
  %conv687 = zext i32 %sub to i64
  %arrayidx.i57 = getelementptr inbounds %class.FastBoard, %class.FastBoard* %this, i64 0, i32 7, i32 0, i64 %conv687
  %2 = load i16, i16* %arrayidx.i57, align 2, !tbaa !23, !sourceFile !3, !mergedLineNum !4
  %cmp.i58 = icmp ult i16 %2, 442
  br i1 %cmp.i58, label %_ZN5boost5arrayItLm442EEixEm.exit61, label %cond.false.i59, !sourceFile !3, !mergedLineNum !4

cond.false.i59:                                   ; preds = %_ZN5boost5arrayItLm442EEixEm.exit
  tail call void @__assert_fail(i8* getelementptr inbounds ([24 x i8], [24 x i8]* @.str.61, i64 0, i64 0), i8* getelementptr inbounds ([18 x i8], [18 x i8]* @.str.62, i64 0, i64 0), i32 92, i8* getelementptr inbounds ([125 x i8], [125 x i8]* @__PRETTY_FUNCTION__._ZN5boost5arrayItLm442EEixEm, i64 0, i64 0)) #19, !sourceFile !3, !mergedLineNum !4
  unreachable, !sourceFile !3, !mergedLineNum !4

_ZN5boost5arrayItLm442EEixEm.exit61:              ; preds = %_ZN5boost5arrayItLm442EEixEm.exit
  %conv8 = zext i16 %2 to i64, !sourceFile !3, !mergedLineNum !4
  %arrayidx.i60 = getelementptr inbounds %class.FastBoard, %class.FastBoard* %this, i64 0, i32 8, i32 0, i64 %conv8
  %3 = load i16, i16* %arrayidx.i60, align 2, !tbaa !23, !sourceFile !3, !mergedLineNum !4
  %cmp = icmp ult i16 %3, 2
  br i1 %cmp, label %cleanup, label %_ZN5boost5arrayItLm442EEixEm.exit65, !sourceFile !3, !mergedLineNum !4

_ZN5boost5arrayItLm442EEixEm.exit65:              ; preds = %_ZN5boost5arrayItLm442EEixEm.exit61
  %add = add nuw nsw i32 %i, 1, !sourceFile !3, !mergedLineNum !4
  %conv1588 = zext i32 %add to i64
  %arrayidx.i64 = getelementptr inbounds %class.FastBoard, %class.FastBoard* %this, i64 0, i32 7, i32 0, i64 %conv1588
  %4 = load i16, i16* %arrayidx.i64, align 2, !tbaa !23, !sourceFile !3, !mergedLineNum !4
  %cmp.i66 = icmp ult i16 %4, 442
  br i1 %cmp.i66, label %_ZN5boost5arrayItLm442EEixEm.exit69, label %cond.false.i67, !sourceFile !3, !mergedLineNum !4

cond.false.i67:                                   ; preds = %_ZN5boost5arrayItLm442EEixEm.exit65
  tail call void @__assert_fail(i8* getelementptr inbounds ([24 x i8], [24 x i8]* @.str.61, i64 0, i64 0), i8* getelementptr inbounds ([18 x i8], [18 x i8]* @.str.62, i64 0, i64 0), i32 92, i8* getelementptr inbounds ([125 x i8], [125 x i8]* @__PRETTY_FUNCTION__._ZN5boost5arrayItLm442EEixEm, i64 0, i64 0)) #19, !sourceFile !3, !mergedLineNum !4
  unreachable, !sourceFile !3, !mergedLineNum !4

_ZN5boost5arrayItLm442EEixEm.exit69:              ; preds = %_ZN5boost5arrayItLm442EEixEm.exit65
  %conv17 = zext i16 %4 to i64, !sourceFile !3, !mergedLineNum !4
  %arrayidx.i68 = getelementptr inbounds %class.FastBoard, %class.FastBoard* %this, i64 0, i32 8, i32 0, i64 %conv17
  %5 = load i16, i16* %arrayidx.i68, align 2, !tbaa !23, !sourceFile !3, !mergedLineNum !4
  %cmp20 = icmp ult i16 %5, 2
  br i1 %cmp20, label %cleanup, label %if.end22, !sourceFile !3, !mergedLineNum !4

if.end22:                                         ; preds = %_ZN5boost5arrayItLm442EEixEm.exit69
  %m_boardsize = getelementptr inbounds %class.FastBoard, %class.FastBoard* %this, i64 0, i32 17, !sourceFile !3, !mergedLineNum !4
  %6 = load i32, i32* %m_boardsize, align 8, !tbaa !5, !sourceFile !3, !mergedLineNum !4
  %add25 = add nuw nsw i32 %i, 2, !sourceFile !3, !mergedLineNum !4
  %add26 = add i32 %add25, %6, !sourceFile !3, !mergedLineNum !4
  %cmp.i70 = icmp ult i32 %add26, 442
  br i1 %cmp.i70, label %_ZN5boost5arrayItLm442EEixEm.exit73, label %cond.false.i71, !sourceFile !3, !mergedLineNum !4

cond.false.i71:                                   ; preds = %if.end22
  tail call void @__assert_fail(i8* getelementptr inbounds ([24 x i8], [24 x i8]* @.str.61, i64 0, i64 0), i8* getelementptr inbounds ([18 x i8], [18 x i8]* @.str.62, i64 0, i64 0), i32 92, i8* getelementptr inbounds ([125 x i8], [125 x i8]* @__PRETTY_FUNCTION__._ZN5boost5arrayItLm442EEixEm, i64 0, i64 0)) #19, !sourceFile !3, !mergedLineNum !4
  unreachable, !sourceFile !3, !mergedLineNum !4

_ZN5boost5arrayItLm442EEixEm.exit73:              ; preds = %if.end22
  %conv2789 = zext i32 %add26 to i64
  %arrayidx.i72 = getelementptr inbounds %class.FastBoard, %class.FastBoard* %this, i64 0, i32 7, i32 0, i64 %conv2789
  %7 = load i16, i16* %arrayidx.i72, align 2, !tbaa !23, !sourceFile !3, !mergedLineNum !4
  %cmp.i74 = icmp ult i16 %7, 442
  br i1 %cmp.i74, label %_ZN5boost5arrayItLm442EEixEm.exit77, label %cond.false.i75, !sourceFile !3, !mergedLineNum !4

cond.false.i75:                                   ; preds = %_ZN5boost5arrayItLm442EEixEm.exit73
  tail call void @__assert_fail(i8* getelementptr inbounds ([24 x i8], [24 x i8]* @.str.61, i64 0, i64 0), i8* getelementptr inbounds ([18 x i8], [18 x i8]* @.str.62, i64 0, i64 0), i32 92, i8* getelementptr inbounds ([125 x i8], [125 x i8]* @__PRETTY_FUNCTION__._ZN5boost5arrayItLm442EEixEm, i64 0, i64 0)) #19, !sourceFile !3, !mergedLineNum !4
  unreachable, !sourceFile !3, !mergedLineNum !4

_ZN5boost5arrayItLm442EEixEm.exit77:              ; preds = %_ZN5boost5arrayItLm442EEixEm.exit73
  %conv29 = zext i16 %7 to i64, !sourceFile !3, !mergedLineNum !4
  %arrayidx.i76 = getelementptr inbounds %class.FastBoard, %class.FastBoard* %this, i64 0, i32 8, i32 0, i64 %conv29
  %8 = load i16, i16* %arrayidx.i76, align 2, !tbaa !23, !sourceFile !3, !mergedLineNum !4
  %cmp32 = icmp ult i16 %8, 2
  br i1 %cmp32, label %cleanup, label %if.end34, !sourceFile !3, !mergedLineNum !4

if.end34:                                         ; preds = %_ZN5boost5arrayItLm442EEixEm.exit77
  %sub38 = sub nsw i32 %i, %6, !sourceFile !3, !mergedLineNum !4
  %sub39 = add nsw i32 %sub38, -2
  %cmp.i78 = icmp ult i32 %sub39, 442
  br i1 %cmp.i78, label %_ZN5boost5arrayItLm442EEixEm.exit81, label %cond.false.i79, !sourceFile !3, !mergedLineNum !4

cond.false.i79:                                   ; preds = %if.end34
  tail call void @__assert_fail(i8* getelementptr inbounds ([24 x i8], [24 x i8]* @.str.61, i64 0, i64 0), i8* getelementptr inbounds ([18 x i8], [18 x i8]* @.str.62, i64 0, i64 0), i32 92, i8* getelementptr inbounds ([125 x i8], [125 x i8]* @__PRETTY_FUNCTION__._ZN5boost5arrayItLm442EEixEm, i64 0, i64 0)) #19, !sourceFile !3, !mergedLineNum !4
  unreachable, !sourceFile !3, !mergedLineNum !4

_ZN5boost5arrayItLm442EEixEm.exit81:              ; preds = %if.end34
  %conv4090 = zext i32 %sub39 to i64
  %arrayidx.i80 = getelementptr inbounds %class.FastBoard, %class.FastBoard* %this, i64 0, i32 7, i32 0, i64 %conv4090
  %9 = load i16, i16* %arrayidx.i80, align 2, !tbaa !23, !sourceFile !3, !mergedLineNum !4
  %cmp.i82 = icmp ult i16 %9, 442
  br i1 %cmp.i82, label %_ZN5boost5arrayItLm442EEixEm.exit85, label %cond.false.i83, !sourceFile !3, !mergedLineNum !4

cond.false.i83:                                   ; preds = %_ZN5boost5arrayItLm442EEixEm.exit81
  tail call void @__assert_fail(i8* getelementptr inbounds ([24 x i8], [24 x i8]* @.str.61, i64 0, i64 0), i8* getelementptr inbounds ([18 x i8], [18 x i8]* @.str.62, i64 0, i64 0), i32 92, i8* getelementptr inbounds ([125 x i8], [125 x i8]* @__PRETTY_FUNCTION__._ZN5boost5arrayItLm442EEixEm, i64 0, i64 0)) #19, !sourceFile !3, !mergedLineNum !4
  unreachable, !sourceFile !3, !mergedLineNum !4

_ZN5boost5arrayItLm442EEixEm.exit85:              ; preds = %_ZN5boost5arrayItLm442EEixEm.exit81
  %conv42 = zext i16 %9 to i64, !sourceFile !3, !mergedLineNum !4
  %arrayidx.i84 = getelementptr inbounds %class.FastBoard, %class.FastBoard* %this, i64 0, i32 8, i32 0, i64 %conv42
  %10 = load i16, i16* %arrayidx.i84, align 2, !tbaa !23, !sourceFile !3, !mergedLineNum !4
  %cmp45 = icmp ugt i16 %10, 1
  %moved.sel = zext i1 %cmp45 to i32
  br label %cleanup

cleanup:                                          ; preds = %_ZN5boost5arrayItLm442EEixEm.exit77, %_ZN5boost5arrayItLm442EEixEm.exit69, %_ZN5boost5arrayItLm442EEixEm.exit61, %_ZN5boost5arrayItLm441EEixEm.exit, %_ZN5boost5arrayItLm442EEixEm.exit85
  %retval.0 = phi i32 [ %moved.sel, %_ZN5boost5arrayItLm442EEixEm.exit85 ], [ 0, %_ZN5boost5arrayItLm441EEixEm.exit ], [ 0, %_ZN5boost5arrayItLm442EEixEm.exit61 ], [ 0, %_ZN5boost5arrayItLm442EEixEm.exit69 ], [ 0, %_ZN5boost5arrayItLm442EEixEm.exit77 ], !sourceFile !3, !mergedLineNum !4
  ret i32 %retval.0, !sourceFile !3, !mergedLineNum !4
}

; Function Attrs: mustprogress nounwind uwtable
define dso_local i32 @_ZN9FastBoard18remove_string_fastEi(%class.FastBoard* nocapture nonnull align 8 dereferenceable(8052) %this, i32 %i) local_unnamed_addr #1 align 2 {
entry:
  %cmp.i = icmp ult i32 %i, 441
  br i1 %cmp.i, label %_ZN5boost5arrayIN9FastBoard8square_tELm441EEixEm.exit, label %cond.false.i, !sourceFile !3, !mergedLineNum !4

cond.false.i:                                     ; preds = %entry
  tail call void @__assert_fail(i8* getelementptr inbounds ([24 x i8], [24 x i8]* @.str.61, i64 0, i64 0), i8* getelementptr inbounds ([18 x i8], [18 x i8]* @.str.62, i64 0, i64 0), i32 92, i8* getelementptr inbounds ([135 x i8], [135 x i8]* @__PRETTY_FUNCTION__._ZN5boost5arrayIN9FastBoard8square_tELm441EEixEm, i64 0, i64 0)) #19, !sourceFile !3, !mergedLineNum !4
  unreachable, !sourceFile !3, !mergedLineNum !4

_ZN5boost5arrayIN9FastBoard8square_tELm441EEixEm.exit: ; preds = %entry
  %conv75 = zext i32 %i to i64
  %arrayidx.i = getelementptr inbounds %class.FastBoard, %class.FastBoard* %this, i64 0, i32 5, i32 0, i64 %conv75
  %0 = load i32, i32* %arrayidx.i, align 4, !tbaa !18, !sourceFile !3, !mergedLineNum !4
  %1 = icmp ult i32 %0, 3
  br i1 %1, label %do.body.preheader, label %cond.false, !sourceFile !3, !mergedLineNum !4

do.body.preheader:                                ; preds = %_ZN5boost5arrayIN9FastBoard8square_tELm441EEixEm.exit
  %cmp.i61.not = icmp eq i32 %0, 2
  %conv1676 = zext i32 %0 to i64
  %arrayidx.i63 = getelementptr inbounds %class.FastBoard, %class.FastBoard* %this, i64 0, i32 15, i32 0, i64 %conv1676
  %m_empty_cnt = getelementptr inbounds %class.FastBoard, %class.FastBoard* %this, i64 0, i32 2
  br label %do.body

cond.false:                                       ; preds = %_ZN5boost5arrayIN9FastBoard8square_tELm441EEixEm.exit
  tail call void @__assert_fail(i8* getelementptr inbounds ([51 x i8], [51 x i8]* @.str.9, i64 0, i64 0), i8* getelementptr inbounds ([14 x i8], [14 x i8]* @.str.1, i64 0, i64 0), i32 258, i8* getelementptr inbounds ([39 x i8], [39 x i8]* @__PRETTY_FUNCTION__._ZN9FastBoard18remove_string_fastEi, i64 0, i64 0)) #19, !sourceFile !3, !mergedLineNum !4
  unreachable, !sourceFile !3, !mergedLineNum !4

do.body:                                          ; preds = %do.body.preheader, %_ZN5boost5arrayItLm442EEixEm.exit74
  %removed.0 = phi i32 [ %inc26, %_ZN5boost5arrayItLm442EEixEm.exit74 ], [ 0, %do.body.preheader ], !sourceFile !3, !mergedLineNum !4
  %pos.0 = phi i32 [ %conv29, %_ZN5boost5arrayItLm442EEixEm.exit74 ], [ %i, %do.body.preheader ], !sourceFile !3, !mergedLineNum !4
  %conv577 = zext i32 %pos.0 to i64
  %cmp.i50 = icmp ult i32 %pos.0, 441
  br i1 %cmp.i50, label %_ZN5boost5arrayIN9FastBoard8square_tELm441EEixEm.exit53, label %cond.false.i51, !sourceFile !3, !mergedLineNum !4

cond.false.i51:                                   ; preds = %do.body
  tail call void @__assert_fail(i8* getelementptr inbounds ([24 x i8], [24 x i8]* @.str.61, i64 0, i64 0), i8* getelementptr inbounds ([18 x i8], [18 x i8]* @.str.62, i64 0, i64 0), i32 92, i8* getelementptr inbounds ([135 x i8], [135 x i8]* @__PRETTY_FUNCTION__._ZN5boost5arrayIN9FastBoard8square_tELm441EEixEm, i64 0, i64 0)) #19, !sourceFile !3, !mergedLineNum !4
  unreachable, !sourceFile !3, !mergedLineNum !4

_ZN5boost5arrayIN9FastBoard8square_tELm441EEixEm.exit53: ; preds = %do.body
  %arrayidx.i52 = getelementptr inbounds %class.FastBoard, %class.FastBoard* %this, i64 0, i32 5, i32 0, i64 %conv577
  %2 = load i32, i32* %arrayidx.i52, align 4, !tbaa !18, !sourceFile !3, !mergedLineNum !4
  %cmp7 = icmp eq i32 %2, %0, !sourceFile !3, !mergedLineNum !4
  br i1 %cmp7, label %_ZN5boost5arrayItLm442EEixEm.exit, label %cond.false9, !sourceFile !3, !mergedLineNum !4

cond.false9:                                      ; preds = %_ZN5boost5arrayIN9FastBoard8square_tELm441EEixEm.exit53
  tail call void @__assert_fail(i8* getelementptr inbounds ([23 x i8], [23 x i8]* @.str.10, i64 0, i64 0), i8* getelementptr inbounds ([14 x i8], [14 x i8]* @.str.1, i64 0, i64 0), i32 261, i8* getelementptr inbounds ([39 x i8], [39 x i8]* @__PRETTY_FUNCTION__._ZN9FastBoard18remove_string_fastEi, i64 0, i64 0)) #19, !sourceFile !3, !mergedLineNum !4
  unreachable, !sourceFile !3, !mergedLineNum !4

_ZN5boost5arrayItLm442EEixEm.exit:                ; preds = %_ZN5boost5arrayIN9FastBoard8square_tELm441EEixEm.exit53
  store i32 2, i32* %arrayidx.i52, align 4, !tbaa !18, !sourceFile !3, !mergedLineNum !4
  %arrayidx.i60 = getelementptr inbounds %class.FastBoard, %class.FastBoard* %this, i64 0, i32 7, i32 0, i64 %conv577
  store i16 441, i16* %arrayidx.i60, align 2, !tbaa !23, !sourceFile !3, !mergedLineNum !4
  br i1 %cmp.i61.not, label %cond.false.i62, label %_ZN5boost5arrayItLm441EEixEm.exit, !sourceFile !3, !mergedLineNum !4

cond.false.i62:                                   ; preds = %_ZN5boost5arrayItLm442EEixEm.exit
  tail call void @__assert_fail(i8* getelementptr inbounds ([24 x i8], [24 x i8]* @.str.61, i64 0, i64 0), i8* getelementptr inbounds ([18 x i8], [18 x i8]* @.str.62, i64 0, i64 0), i32 92, i8* getelementptr inbounds ([99 x i8], [99 x i8]* @__PRETTY_FUNCTION__._ZN5boost5arrayIiLm2EEixEm, i64 0, i64 0)) #19, !sourceFile !3, !mergedLineNum !4
  unreachable, !sourceFile !3, !mergedLineNum !4

_ZN5boost5arrayItLm441EEixEm.exit:                ; preds = %_ZN5boost5arrayItLm442EEixEm.exit
  %3 = load i32, i32* %arrayidx.i63, align 4, !tbaa !22, !sourceFile !3, !mergedLineNum !4
  %dec = add nsw i32 %3, -1, !sourceFile !3, !mergedLineNum !4
  store i32 %dec, i32* %arrayidx.i63, align 4, !tbaa !22, !sourceFile !3, !mergedLineNum !4
  tail call void @_ZN9FastBoard16remove_neighbourEii(%class.FastBoard* nonnull align 8 dereferenceable(8052) %this, i32 %pos.0, i32 %0), !sourceFile !3, !mergedLineNum !4
  %4 = load i32, i32* %m_empty_cnt, align 4, !tbaa !21, !sourceFile !3, !mergedLineNum !4
  %conv18 = trunc i32 %4 to i16, !sourceFile !3, !mergedLineNum !4
  %arrayidx.i66 = getelementptr inbounds %class.FastBoard, %class.FastBoard* %this, i64 0, i32 1, i32 0, i64 %conv577
  store i16 %conv18, i16* %arrayidx.i66, align 2, !tbaa !23, !sourceFile !3, !mergedLineNum !4
  %cmp.i67 = icmp ult i32 %4, 441
  br i1 %cmp.i67, label %_ZN5boost5arrayItLm442EEixEm.exit74, label %cond.false.i68, !sourceFile !3, !mergedLineNum !4

cond.false.i68:                                   ; preds = %_ZN5boost5arrayItLm441EEixEm.exit
  tail call void @__assert_fail(i8* getelementptr inbounds ([24 x i8], [24 x i8]* @.str.61, i64 0, i64 0), i8* getelementptr inbounds ([18 x i8], [18 x i8]* @.str.62, i64 0, i64 0), i32 92, i8* getelementptr inbounds ([125 x i8], [125 x i8]* @__PRETTY_FUNCTION__._ZN5boost5arrayItLm441EEixEm, i64 0, i64 0)) #19, !sourceFile !3, !mergedLineNum !4
  unreachable, !sourceFile !3, !mergedLineNum !4

_ZN5boost5arrayItLm442EEixEm.exit74:              ; preds = %_ZN5boost5arrayItLm441EEixEm.exit
  %conv2378 = zext i32 %4 to i64
  %conv21 = trunc i32 %pos.0 to i16, !sourceFile !3, !mergedLineNum !4
  %arrayidx.i69 = getelementptr inbounds %class.FastBoard, %class.FastBoard* %this, i64 0, i32 0, i32 0, i64 %conv2378
  store i16 %conv21, i16* %arrayidx.i69, align 2, !tbaa !23, !sourceFile !3, !mergedLineNum !4
  %inc = add nuw nsw i32 %4, 1, !sourceFile !3, !mergedLineNum !4
  store i32 %inc, i32* %m_empty_cnt, align 4, !tbaa !21, !sourceFile !3, !mergedLineNum !4
  %inc26 = add nuw nsw i32 %removed.0, 1, !sourceFile !3, !mergedLineNum !4
  %arrayidx.i73 = getelementptr inbounds %class.FastBoard, %class.FastBoard* %this, i64 0, i32 6, i32 0, i64 %conv577
  %5 = load i16, i16* %arrayidx.i73, align 2, !tbaa !23, !sourceFile !3, !mergedLineNum !4
  %conv29 = zext i16 %5 to i32, !sourceFile !3, !mergedLineNum !4
  %cmp30.not = icmp eq i32 %conv29, %i, !sourceFile !3, !mergedLineNum !4
  br i1 %cmp30.not, label %do.end, label %do.body, !llvm.loop !34, !sourceFile !3, !mergedLineNum !4

do.end:                                           ; preds = %_ZN5boost5arrayItLm442EEixEm.exit74
  ret i32 %inc26, !sourceFile !3, !mergedLineNum !4
}

; Function Attrs: uwtable
define dso_local void @_ZN9FastBoard16calc_reach_colorEi(%"class.std::vector.6"* noalias sret(%"class.std::vector.6") align 8 %agg.result, %class.FastBoard* nocapture nonnull readonly align 8 dereferenceable(8052) %this, i32 %col) local_unnamed_addr #4 align 2 personality i8* bitcast (i32 (...)* @__gxx_personality_v0 to i8*) {
entry:
  %last = alloca %"class.std::vector.6", align 8, !sourceFile !3, !mergedLineNum !4
  %m_maxsq = getelementptr inbounds %class.FastBoard, %class.FastBoard* %this, i64 0, i32 4, !sourceFile !3, !mergedLineNum !4
  %0 = load i32, i32* %m_maxsq, align 4, !tbaa !17, !sourceFile !3, !mergedLineNum !4
  %conv = sext i32 %0 to i64, !sourceFile !3, !mergedLineNum !4
  %_M_p.i.i.i.i.i.i.i = getelementptr inbounds %"class.std::vector.6", %"class.std::vector.6"* %agg.result, i64 0, i32 0, i32 0, i32 0, i32 0, i32 0, i32 0
  store i64* null, i64** %_M_p.i.i.i.i.i.i.i, align 8, !tbaa !35, !sourceFile !3, !mergedLineNum !4
  %1 = getelementptr inbounds %"class.std::vector.6", %"class.std::vector.6"* %agg.result, i64 0, i32 0, i32 0, i32 0, i32 0, i32 0, i32 1
  store i32 0, i32* %1, align 8, !tbaa !38, !sourceFile !3, !mergedLineNum !4
  %_M_p.i.i3.i.i.i.i.i = getelementptr inbounds %"class.std::vector.6", %"class.std::vector.6"* %agg.result, i64 0, i32 0, i32 0, i32 0, i32 1, i32 0, i32 0
  store i64* null, i64** %_M_p.i.i3.i.i.i.i.i, align 8, !tbaa !35, !sourceFile !3, !mergedLineNum !4
  %2 = getelementptr inbounds %"class.std::vector.6", %"class.std::vector.6"* %agg.result, i64 0, i32 0, i32 0, i32 0, i32 1, i32 0, i32 1
  store i32 0, i32* %2, align 8, !tbaa !38, !sourceFile !3, !mergedLineNum !4
  %_M_end_of_storage.i.i.i.i.i = getelementptr inbounds %"class.std::vector.6", %"class.std::vector.6"* %agg.result, i64 0, i32 0, i32 0, i32 0, i32 2
  store i64* null, i64** %_M_end_of_storage.i.i.i.i.i, align 8, !tbaa !39, !sourceFile !3, !mergedLineNum !4
  %tobool.not.i.i.i = icmp eq i32 %0, 0
  br i1 %tobool.not.i.i.i, label %invoke.cont, label %if.then.i.i.i, !sourceFile !3, !mergedLineNum !4

if.then.i.i.i:                                    ; preds = %entry
  %sub.i.i.i.i.i = add nsw i64 %conv, 63
  %3 = lshr i64 %sub.i.i.i.i.i, 3
  %mul.i.i.i.i.i.i = and i64 %3, 2305843009213693944
  %call5.i.i.i.i3.i.i159 = tail call noalias nonnull i8* @_Znwm(i64 %mul.i.i.i.i.i.i) #21
  %4 = bitcast i8* %call5.i.i.i.i3.i.i159 to i64*
  %div.i.i.i.i = lshr i64 %sub.i.i.i.i.i, 6
  %add.ptr.i.i.i = getelementptr inbounds i64, i64* %4, i64 %div.i.i.i.i, !sourceFile !3, !mergedLineNum !4
  store i64* %add.ptr.i.i.i, i64** %_M_end_of_storage.i.i.i.i.i, align 8, !tbaa !39, !sourceFile !3, !mergedLineNum !4
  %5 = bitcast %"class.std::vector.6"* %agg.result to i8**
  store i8* %call5.i.i.i.i3.i.i159, i8** %5, align 8
  store i32 0, i32* %1, align 8
  %div.i.i.i.i.i.i372 = sdiv i32 %0, 64
  %rem.i.i.i.i.i.i373 = srem i32 %0, 64
  %6 = ashr i32 %rem.i.i.i.i.i.i373, 31
  %narrow = add nsw i32 %6, %div.i.i.i.i.i.i372
  %merged.select.idx.i.i.i.i.i.i = sext i32 %narrow to i64
  %merged.select.i.i.i.i.i.i = getelementptr i64, i64* %4, i64 %merged.select.idx.i.i.i.i.i.i
  %cmp.i.i.i.i.i.i = icmp slt i32 %rem.i.i.i.i.i.i373, 0
  %7 = add nsw i32 %rem.i.i.i.i.i.i373, 64
  %moved.sel.i.i.i.i.i.i = select i1 %cmp.i.i.i.i.i.i, i32 %7, i32 %rem.i.i.i.i.i.i373
  store i64* %merged.select.i.i.i.i.i.i, i64** %_M_p.i.i3.i.i.i.i.i, align 8, !sourceFile !3, !mergedLineNum !4
  store i32 %moved.sel.i.i.i.i.i.i, i32* %2, align 8, !sourceFile !3, !mergedLineNum !4
  %phi.cast.i.i = ptrtoint i64* %add.ptr.i.i.i to i64
  %sub.ptr.rhs.cast.i.i.i = ptrtoint i8* %call5.i.i.i.i3.i.i159 to i64
  %sub.ptr.sub.i.i.i = sub i64 %phi.cast.i.i, %sub.ptr.rhs.cast.i.i.i, !sourceFile !3, !mergedLineNum !4
  tail call void @llvm.memset.p0i8.i64(i8* nonnull align 8 %call5.i.i.i.i3.i.i159, i8 0, i64 %sub.ptr.sub.i.i.i, i1 false) #20, !sourceFile !3, !mergedLineNum !4
  br label %invoke.cont, !sourceFile !3, !mergedLineNum !4

invoke.cont:                                      ; preds = %if.then.i.i.i, %entry
  %retval.sroa.2.0.copyload.i = phi i32 [ %moved.sel.i.i.i.i.i.i, %if.then.i.i.i ], [ 0, %entry ]
  %retval.sroa.0.0.copyload.i = phi i64* [ %merged.select.i.i.i.i.i.i, %if.then.i.i.i ], [ null, %entry ]
  %8 = phi i64* [ %4, %if.then.i.i.i ], [ null, %entry ]
  %9 = bitcast %"class.std::vector.6"* %last to i8*, !sourceFile !3, !mergedLineNum !4
  call void @llvm.lifetime.start.p0i8(i64 40, i8* nonnull %9) #20, !sourceFile !3, !mergedLineNum !4
  %_M_p.i.i.i.i.i.i.i160 = getelementptr inbounds %"class.std::vector.6", %"class.std::vector.6"* %last, i64 0, i32 0, i32 0, i32 0, i32 0, i32 0, i32 0
  store i64* null, i64** %_M_p.i.i.i.i.i.i.i160, align 8, !tbaa !35, !sourceFile !3, !mergedLineNum !4
  %10 = getelementptr inbounds %"class.std::vector.6", %"class.std::vector.6"* %last, i64 0, i32 0, i32 0, i32 0, i32 0, i32 0, i32 1
  store i32 0, i32* %10, align 8, !tbaa !38, !sourceFile !3, !mergedLineNum !4
  %_M_p.i.i3.i.i.i.i.i161 = getelementptr inbounds %"class.std::vector.6", %"class.std::vector.6"* %last, i64 0, i32 0, i32 0, i32 0, i32 1, i32 0, i32 0
  store i64* null, i64** %_M_p.i.i3.i.i.i.i.i161, align 8, !tbaa !35, !sourceFile !3, !mergedLineNum !4
  %11 = getelementptr inbounds %"class.std::vector.6", %"class.std::vector.6"* %last, i64 0, i32 0, i32 0, i32 0, i32 1, i32 0, i32 1
  store i32 0, i32* %11, align 8, !tbaa !38, !sourceFile !3, !mergedLineNum !4
  %_M_end_of_storage.i.i.i.i.i162 = getelementptr inbounds %"class.std::vector.6", %"class.std::vector.6"* %last, i64 0, i32 0, i32 0, i32 0, i32 2
  store i64* null, i64** %_M_end_of_storage.i.i.i.i.i162, align 8, !tbaa !39, !sourceFile !3, !mergedLineNum !4
  br i1 %tobool.not.i.i.i, label %invoke.cont6, label %if.then.i.i.i179, !sourceFile !3, !mergedLineNum !4

if.then.i.i.i179:                                 ; preds = %invoke.cont
  %sub.i.i.i.i.i164 = add nsw i64 %conv, 63
  %12 = lshr i64 %sub.i.i.i.i.i164, 3
  %mul.i.i.i.i.i.i165 = and i64 %12, 2305843009213693944
  %call5.i.i.i.i3.i.i181 = invoke noalias nonnull i8* @_Znwm(i64 %mul.i.i.i.i.i.i165) #21
          to label %call5.i.i.i.i3.i.i.noexc180 unwind label %lpad5

call5.i.i.i.i3.i.i.noexc180:                      ; preds = %if.then.i.i.i179
  %13 = bitcast i8* %call5.i.i.i.i3.i.i181 to i64*
  %div.i.i.i.i166 = lshr i64 %sub.i.i.i.i.i164, 6
  %add.ptr.i.i.i167 = getelementptr inbounds i64, i64* %13, i64 %div.i.i.i.i166, !sourceFile !3, !mergedLineNum !4
  store i64* %add.ptr.i.i.i167, i64** %_M_end_of_storage.i.i.i.i.i162, align 8, !tbaa !39, !sourceFile !3, !mergedLineNum !4
  %14 = bitcast %"class.std::vector.6"* %last to i8**
  store i8* %call5.i.i.i.i3.i.i181, i8** %14, align 8
  store i32 0, i32* %10, align 8
  %div.i.i.i.i.i.i168370 = sdiv i32 %0, 64
  %rem.i.i.i.i.i.i169371 = srem i32 %0, 64
  %15 = ashr i32 %rem.i.i.i.i.i.i169371, 31
  %narrow374 = add nsw i32 %15, %div.i.i.i.i.i.i168370
  %merged.select.idx.i.i.i.i.i.i171 = sext i32 %narrow374 to i64
  %merged.select.i.i.i.i.i.i172 = getelementptr i64, i64* %13, i64 %merged.select.idx.i.i.i.i.i.i171
  %cmp.i.i.i.i.i.i173 = icmp slt i32 %rem.i.i.i.i.i.i169371, 0
  %16 = add nsw i32 %rem.i.i.i.i.i.i169371, 64
  %moved.sel.i.i.i.i.i.i174 = select i1 %cmp.i.i.i.i.i.i173, i32 %16, i32 %rem.i.i.i.i.i.i169371
  store i64* %merged.select.i.i.i.i.i.i172, i64** %_M_p.i.i3.i.i.i.i.i161, align 8, !sourceFile !3, !mergedLineNum !4
  store i32 %moved.sel.i.i.i.i.i.i174, i32* %11, align 8, !sourceFile !3, !mergedLineNum !4
  %phi.cast.i.i176 = ptrtoint i64* %add.ptr.i.i.i167 to i64
  %sub.ptr.rhs.cast.i.i.i177 = ptrtoint i8* %call5.i.i.i.i3.i.i181 to i64
  %sub.ptr.sub.i.i.i178 = sub i64 %phi.cast.i.i176, %sub.ptr.rhs.cast.i.i.i177, !sourceFile !3, !mergedLineNum !4
  tail call void @llvm.memset.p0i8.i64(i8* nonnull align 8 %call5.i.i.i.i3.i.i181, i8 0, i64 %sub.ptr.sub.i.i.i178, i1 false) #20, !sourceFile !3, !mergedLineNum !4
  br label %invoke.cont6, !sourceFile !3, !mergedLineNum !4

invoke.cont6:                                     ; preds = %call5.i.i.i.i3.i.i.noexc180, %invoke.cont
  %retval.sroa.2.0.copyload.i195 = phi i32 [ %moved.sel.i.i.i.i.i.i174, %call5.i.i.i.i3.i.i.noexc180 ], [ 0, %invoke.cont ]
  %retval.sroa.0.0.copyload.i193 = phi i64* [ %merged.select.i.i.i.i.i.i172, %call5.i.i.i.i3.i.i.noexc180 ], [ null, %invoke.cont ]
  %17 = phi i64* [ %13, %call5.i.i.i.i3.i.i.noexc180 ], [ null, %invoke.cont ]
  %cmp.not.i.i.i = icmp eq i64* %8, %retval.sroa.0.0.copyload.i, !sourceFile !3, !mergedLineNum !4
  br i1 %cmp.not.i.i.i, label %if.else.i.i.i, label %if.end.i.i.i, !sourceFile !3, !mergedLineNum !4

if.end.i.i.i:                                     ; preds = %invoke.cont6
  %sub.ptr.lhs.cast.i.i.i = ptrtoint i64* %retval.sroa.0.0.copyload.i to i64, !sourceFile !3, !mergedLineNum !4
  %sub.ptr.rhs.cast.i.i.i187 = ptrtoint i64* %8 to i64, !sourceFile !3, !mergedLineNum !4
  %sub.ptr.sub.i.i.i188 = sub i64 %sub.ptr.lhs.cast.i.i.i, %sub.ptr.rhs.cast.i.i.i187, !sourceFile !3, !mergedLineNum !4
  %18 = bitcast i64* %8 to i8*, !sourceFile !3, !mergedLineNum !4
  tail call void @llvm.memset.p0i8.i64(i8* nonnull align 8 %18, i8 0, i64 %sub.ptr.sub.i.i.i188, i1 false) #20, !sourceFile !3, !mergedLineNum !4
  %cmp9.not.i.i.i = icmp eq i32 %retval.sroa.2.0.copyload.i, 0, !sourceFile !3, !mergedLineNum !4
  br i1 %cmp9.not.i.i.i, label %invoke.cont11, label %invoke.cont11.sink.split, !sourceFile !3, !mergedLineNum !4

if.else.i.i.i:                                    ; preds = %invoke.cont6
  %cmp17.not.i.i.i = icmp eq i32 %retval.sroa.2.0.copyload.i, 0, !sourceFile !3, !mergedLineNum !4
  br i1 %cmp17.not.i.i.i, label %invoke.cont11, label %invoke.cont11.sink.split, !sourceFile !3, !mergedLineNum !4

invoke.cont11.sink.split:                         ; preds = %if.else.i.i.i, %if.end.i.i.i
  %sub.i44.i.i.i = sub nuw nsw i32 64, %retval.sroa.2.0.copyload.i
  %sh_prom1.i45.i.i.i = zext i32 %sub.i44.i.i.i to i64
  %shr.i46.i.i.i = lshr i64 -1, %sh_prom1.i45.i.i.i
  %19 = xor i64 %shr.i46.i.i.i, -1
  %20 = load i64, i64* %retval.sroa.0.0.copyload.i, align 8, !tbaa !42
  %21 = and i64 %20, %19
  store i64 %21, i64* %retval.sroa.0.0.copyload.i, align 8, !tbaa !42
  br label %invoke.cont11

invoke.cont11:                                    ; preds = %invoke.cont11.sink.split, %if.else.i.i.i, %if.end.i.i.i
  %cmp.not.i.i.i198 = icmp eq i64* %17, %retval.sroa.0.0.copyload.i193, !sourceFile !3, !mergedLineNum !4
  br i1 %cmp.not.i.i.i198, label %if.else.i.i.i223, label %if.end.i.i.i215, !sourceFile !3, !mergedLineNum !4

if.end.i.i.i215:                                  ; preds = %invoke.cont11
  %sub.ptr.lhs.cast.i.i.i210 = ptrtoint i64* %retval.sroa.0.0.copyload.i193 to i64, !sourceFile !3, !mergedLineNum !4
  %sub.ptr.rhs.cast.i.i.i211 = ptrtoint i64* %17 to i64, !sourceFile !3, !mergedLineNum !4
  %sub.ptr.sub.i.i.i212 = sub i64 %sub.ptr.lhs.cast.i.i.i210, %sub.ptr.rhs.cast.i.i.i211, !sourceFile !3, !mergedLineNum !4
  %22 = bitcast i64* %17 to i8*, !sourceFile !3, !mergedLineNum !4
  tail call void @llvm.memset.p0i8.i64(i8* nonnull align 8 %22, i8 0, i64 %sub.ptr.sub.i.i.i212, i1 false) #20, !sourceFile !3, !mergedLineNum !4
  %cmp9.not.i.i.i214 = icmp eq i32 %retval.sroa.2.0.copyload.i195, 0, !sourceFile !3, !mergedLineNum !4
  br i1 %cmp9.not.i.i.i214, label %invoke.cont18, label %invoke.cont18.sink.split, !sourceFile !3, !mergedLineNum !4

if.else.i.i.i223:                                 ; preds = %invoke.cont11
  %cmp17.not.i.i.i222 = icmp eq i32 %retval.sroa.2.0.copyload.i195, 0, !sourceFile !3, !mergedLineNum !4
  br i1 %cmp17.not.i.i.i222, label %invoke.cont18, label %invoke.cont18.sink.split, !sourceFile !3, !mergedLineNum !4

invoke.cont18.sink.split:                         ; preds = %if.else.i.i.i223, %if.end.i.i.i215
  %sub.i44.i.i.i227 = sub nuw nsw i32 64, %retval.sroa.2.0.copyload.i195
  %sh_prom1.i45.i.i.i228 = zext i32 %sub.i44.i.i.i227 to i64
  %shr.i46.i.i.i229 = lshr i64 -1, %sh_prom1.i45.i.i.i228
  %23 = xor i64 %shr.i46.i.i.i229, -1
  %24 = load i64, i64* %retval.sroa.0.0.copyload.i193, align 8, !tbaa !42
  %25 = and i64 %24, %23
  store i64 %25, i64* %retval.sroa.0.0.copyload.i193, align 8, !tbaa !42
  br label %invoke.cont18

invoke.cont18:                                    ; preds = %invoke.cont18.sink.split, %if.else.i.i.i223, %if.end.i.i.i215
  %m_boardsize = getelementptr inbounds %class.FastBoard, %class.FastBoard* %this, i64 0, i32 17
  %arrayidx.i275 = getelementptr inbounds %class.FastBoard, %class.FastBoard* %this, i64 0, i32 12, i32 0, i64 0
  %arrayidx.i275.1 = getelementptr inbounds %class.FastBoard, %class.FastBoard* %this, i64 0, i32 12, i32 0, i64 1
  %arrayidx.i275.2 = getelementptr inbounds %class.FastBoard, %class.FastBoard* %this, i64 0, i32 12, i32 0, i64 2
  %arrayidx.i275.3 = getelementptr inbounds %class.FastBoard, %class.FastBoard* %this, i64 0, i32 12, i32 0, i64 3
  %arrayidx.i236 = getelementptr inbounds %class.FastBoard, %class.FastBoard* %this, i64 0, i32 12, i32 0, i64 0
  %arrayidx.i236.1 = getelementptr inbounds %class.FastBoard, %class.FastBoard* %this, i64 0, i32 12, i32 0, i64 1
  %arrayidx.i236.2 = getelementptr inbounds %class.FastBoard, %class.FastBoard* %this, i64 0, i32 12, i32 0, i64 2
  %arrayidx.i236.3 = getelementptr inbounds %class.FastBoard, %class.FastBoard* %this, i64 0, i32 12, i32 0, i64 3
  br label %do.body, !sourceFile !3, !mergedLineNum !4

do.body:                                          ; preds = %do.body.backedge, %invoke.cont18
  %call21 = invoke nonnull align 8 dereferenceable(40) %"class.std::vector.6"* @_ZNSt6vectorIbSaIbEEaSERKS1_(%"class.std::vector.6"* nonnull align 8 dereferenceable(40) %last, %"class.std::vector.6"* nonnull align 8 dereferenceable(40) %agg.result)
          to label %for.cond.preheader unwind label %lpad19, !sourceFile !3, !mergedLineNum !4

for.cond.preheader:                               ; preds = %do.body
  %26 = load i32, i32* %m_boardsize, align 8, !tbaa !5, !sourceFile !3, !mergedLineNum !4
  %cmp381 = icmp sgt i32 %26, 0, !sourceFile !3, !mergedLineNum !4
  br i1 %cmp381, label %for.cond22.preheader, label %for.cond.cleanup, !sourceFile !3, !mergedLineNum !4

for.cond22.preheader:                             ; preds = %for.cond.preheader, %for.cond.cleanup25
  %27 = phi i32 [ %42, %for.cond.cleanup25 ], [ %26, %for.cond.preheader ]
  %i.0382 = phi i32 [ %inc119, %for.cond.cleanup25 ], [ 0, %for.cond.preheader ]
  %cmp24379 = icmp sgt i32 %27, 0, !sourceFile !3, !mergedLineNum !4
  br i1 %cmp24379, label %for.body26, label %for.cond.cleanup25, !sourceFile !3, !mergedLineNum !4

for.cond.cleanup:                                 ; preds = %for.cond.cleanup25, %for.cond.preheader
  %28 = load i64*, i64** %_M_p.i.i3.i.i.i.i.i161, align 8, !tbaa !35, !sourceFile !3, !mergedLineNum !4
  %29 = load i32, i32* %11, align 8, !tbaa !38, !sourceFile !3, !mergedLineNum !4
  %30 = load i64*, i64** %_M_p.i.i.i.i.i.i.i160, align 8, !tbaa !35, !sourceFile !3, !mergedLineNum !4
  %sub.ptr.lhs.cast.i.i.i.i = ptrtoint i64* %28 to i64, !sourceFile !3, !mergedLineNum !4
  %sub.ptr.rhs.cast.i.i.i.i = ptrtoint i64* %30 to i64
  %sub.ptr.sub.i.i.i.i = sub i64 %sub.ptr.lhs.cast.i.i.i.i, %sub.ptr.rhs.cast.i.i.i.i, !sourceFile !3, !mergedLineNum !4
  %mul.i.i.i.i = shl nsw i64 %sub.ptr.sub.i.i.i.i, 3
  %conv.i.i.i.i = zext i32 %29 to i64, !sourceFile !3, !mergedLineNum !4
  %add.i.i.i.i = add nsw i64 %mul.i.i.i.i, %conv.i.i.i.i, !sourceFile !3, !mergedLineNum !4
  %31 = load i64*, i64** %_M_p.i.i3.i.i.i.i.i, align 8, !tbaa !35, !sourceFile !3, !mergedLineNum !4
  %32 = load i32, i32* %2, align 8, !tbaa !38, !sourceFile !3, !mergedLineNum !4
  %33 = load i64*, i64** %_M_p.i.i.i.i.i.i.i, align 8, !tbaa !35, !sourceFile !3, !mergedLineNum !4
  %sub.ptr.lhs.cast.i.i13.i.i = ptrtoint i64* %31 to i64, !sourceFile !3, !mergedLineNum !4
  %sub.ptr.rhs.cast.i.i14.i.i = ptrtoint i64* %33 to i64, !sourceFile !3, !mergedLineNum !4
  %sub.ptr.sub.i.i15.i.i = sub i64 %sub.ptr.lhs.cast.i.i13.i.i, %sub.ptr.rhs.cast.i.i14.i.i, !sourceFile !3, !mergedLineNum !4
  %mul.i.i16.i.i = shl nsw i64 %sub.ptr.sub.i.i15.i.i, 3
  %conv.i.i17.i.i = zext i32 %32 to i64, !sourceFile !3, !mergedLineNum !4
  %add.i.i18.i.i = add nsw i64 %mul.i.i16.i.i, %conv.i.i17.i.i, !sourceFile !3, !mergedLineNum !4
  %cmp.i.i = icmp eq i64 %add.i.i.i.i, %add.i.i18.i.i, !sourceFile !3, !mergedLineNum !4
  br i1 %cmp.i.i, label %land.rhs.i.i, label %do.body.backedge, !sourceFile !3, !mergedLineNum !4

do.body.backedge:                                 ; preds = %for.body.i.i.i.i.i.i, %for.cond.cleanup
  br label %do.body, !llvm.loop !44

land.rhs.i.i:                                     ; preds = %for.cond.cleanup
  %cmp.i.i25.i.i.i.i.i.i = icmp ne i64* %30, %28, !sourceFile !3, !mergedLineNum !4
  %34 = icmp ne i32 %29, 0, !sourceFile !3, !mergedLineNum !45
  %moved.sel.i.i26.i.i.i.i.i.i = select i1 %cmp.i.i25.i.i.i.i.i.i, i1 true, i1 %34
  br i1 %moved.sel.i.i26.i.i.i.i.i.i, label %for.body.i.i.i.i.i.i, label %do.end, !sourceFile !3, !mergedLineNum !4

for.body.i.i.i.i.i.i:                             ; preds = %land.rhs.i.i, %for.inc.i.i.i.i.i.i
  %__first2.sroa.0.030.i.i.i.i.i.i = phi i64* [ %merged.select5.i.i18.i.i.i.i.i.i, %for.inc.i.i.i.i.i.i ], [ %33, %land.rhs.i.i ]
  %__first2.sroa.4.029.i.i.i.i.i.i = phi i32 [ %merged.select.i.i16.i.i.i.i.i.i, %for.inc.i.i.i.i.i.i ], [ 0, %land.rhs.i.i ]
  %__first1.sroa.5.028.i.i.i.i.i.i = phi i32 [ %merged.select.i.i.i.i.i.i.i.i, %for.inc.i.i.i.i.i.i ], [ 0, %land.rhs.i.i ]
  %__first1.sroa.0.027.i.i.i.i.i.i = phi i64* [ %merged.select5.i.i.i.i.i.i.i.i, %for.inc.i.i.i.i.i.i ], [ %30, %land.rhs.i.i ]
  %sh_prom.i.i.i.i.i.i.i = zext i32 %__first1.sroa.5.028.i.i.i.i.i.i to i64, !sourceFile !3, !mergedLineNum !4
  %shl.i.i.i.i.i.i.i = shl nuw i64 1, %sh_prom.i.i.i.i.i.i.i, !sourceFile !3, !mergedLineNum !4
  %35 = load i64, i64* %__first1.sroa.0.027.i.i.i.i.i.i, align 8, !tbaa !42, !sourceFile !3, !mergedLineNum !4
  %and.i.i.i.i.i.i.i.i = and i64 %35, %shl.i.i.i.i.i.i.i, !sourceFile !3, !mergedLineNum !4
  %tobool.i.i.i.i.i.i.i.i = icmp ne i64 %and.i.i.i.i.i.i.i.i, 0, !sourceFile !3, !mergedLineNum !4
  %sh_prom.i9.i.i.i.i.i.i = zext i32 %__first2.sroa.4.029.i.i.i.i.i.i to i64, !sourceFile !3, !mergedLineNum !4
  %shl.i10.i.i.i.i.i.i = shl nuw i64 1, %sh_prom.i9.i.i.i.i.i.i, !sourceFile !3, !mergedLineNum !4
  %36 = load i64, i64* %__first2.sroa.0.030.i.i.i.i.i.i, align 8, !tbaa !42, !sourceFile !3, !mergedLineNum !4
  %and.i.i11.i.i.i.i.i.i = and i64 %36, %shl.i10.i.i.i.i.i.i, !sourceFile !3, !mergedLineNum !4
  %tobool.i.i12.i.i.i.i.i.i = icmp ne i64 %and.i.i11.i.i.i.i.i.i, 0, !sourceFile !3, !mergedLineNum !4
  %37 = xor i1 %tobool.i.i.i.i.i.i.i.i, %tobool.i.i12.i.i.i.i.i.i
  br i1 %37, label %do.body.backedge, label %for.inc.i.i.i.i.i.i, !llvm.loop !44, !sourceFile !3, !mergedLineNum !4

for.inc.i.i.i.i.i.i:                              ; preds = %for.body.i.i.i.i.i.i
  %inc.i.i.i.i.i.i.i.i = add i32 %__first1.sroa.5.028.i.i.i.i.i.i, 1, !sourceFile !3, !mergedLineNum !4
  %cmp.i.i13.i.i.i.i.i.i = icmp eq i32 %__first1.sroa.5.028.i.i.i.i.i.i, 63, !sourceFile !3, !mergedLineNum !4
  %merged.select.i.i.i.i.i.i.i.i = select i1 %cmp.i.i13.i.i.i.i.i.i, i32 0, i32 %inc.i.i.i.i.i.i.i.i
  %merged.select5.idx.i.i.i.i.i.i.i.i = zext i1 %cmp.i.i13.i.i.i.i.i.i to i64
  %merged.select5.i.i.i.i.i.i.i.i = getelementptr i64, i64* %__first1.sroa.0.027.i.i.i.i.i.i, i64 %merged.select5.idx.i.i.i.i.i.i.i.i
  %inc.i.i14.i.i.i.i.i.i = add i32 %__first2.sroa.4.029.i.i.i.i.i.i, 1, !sourceFile !3, !mergedLineNum !4
  %cmp.i.i15.i.i.i.i.i.i = icmp eq i32 %__first2.sroa.4.029.i.i.i.i.i.i, 63, !sourceFile !3, !mergedLineNum !4
  %merged.select.i.i16.i.i.i.i.i.i = select i1 %cmp.i.i15.i.i.i.i.i.i, i32 0, i32 %inc.i.i14.i.i.i.i.i.i
  %merged.select5.idx.i.i17.i.i.i.i.i.i = zext i1 %cmp.i.i15.i.i.i.i.i.i to i64
  %merged.select5.i.i18.i.i.i.i.i.i = getelementptr i64, i64* %__first2.sroa.0.030.i.i.i.i.i.i, i64 %merged.select5.idx.i.i17.i.i.i.i.i.i
  %cmp.i.i.i.i.i.i.i.i = icmp ne i64* %merged.select5.i.i.i.i.i.i.i.i, %28, !sourceFile !3, !mergedLineNum !4
  %38 = icmp ne i32 %merged.select.i.i.i.i.i.i.i.i, %29, !sourceFile !3, !mergedLineNum !45
  %moved.sel.i.i.i.i.i.i.i.i = select i1 %cmp.i.i.i.i.i.i.i.i, i1 true, i1 %38
  br i1 %moved.sel.i.i.i.i.i.i.i.i, label %for.body.i.i.i.i.i.i, label %do.end, !llvm.loop !46, !sourceFile !3, !mergedLineNum !4

lpad5:                                            ; preds = %if.then.i.i.i179
  %39 = landingpad { i8*, i32 }
          cleanup, !sourceFile !3, !mergedLineNum !4
  br label %ehcleanup125, !sourceFile !3, !mergedLineNum !4

lpad19:                                           ; preds = %do.body
  %40 = landingpad { i8*, i32 }
          cleanup, !sourceFile !3, !mergedLineNum !4
  %41 = load i64*, i64** %_M_p.i.i.i.i.i.i.i160, align 8, !tbaa !35, !sourceFile !3, !mergedLineNum !4
  %tobool.not.i.i299 = icmp eq i64* %41, null, !sourceFile !3, !mergedLineNum !4
  br i1 %tobool.not.i.i299, label %ehcleanup125, label %if.then.i.i310, !sourceFile !3, !mergedLineNum !4

for.cond.cleanup25:                               ; preds = %if.end112, %for.cond22.preheader
  %42 = phi i32 [ %27, %for.cond22.preheader ], [ %67, %if.end112 ]
  %inc119 = add nuw nsw i32 %i.0382, 1, !sourceFile !3, !mergedLineNum !4
  %cmp = icmp slt i32 %inc119, %42, !sourceFile !3, !mergedLineNum !4
  br i1 %cmp, label %for.cond22.preheader, label %for.cond.cleanup, !llvm.loop !47, !sourceFile !3, !mergedLineNum !4

for.body26:                                       ; preds = %for.cond22.preheader, %if.end112
  %j.0380 = phi i32 [ %inc115, %if.end112 ], [ 0, %for.cond22.preheader ]
  %call27 = call i32 @_ZN9FastBoard10get_vertexEii(%class.FastBoard* nonnull align 8 dereferenceable(8052) %this, i32 %i.0382, i32 %j.0380), !sourceFile !3, !mergedLineNum !4
  %cmp.i = icmp ult i32 %call27, 441
  br i1 %cmp.i, label %_ZN5boost5arrayIN9FastBoard8square_tELm441EEixEm.exit, label %cond.false.i, !sourceFile !3, !mergedLineNum !4

cond.false.i:                                     ; preds = %for.body26
  call void @__assert_fail(i8* getelementptr inbounds ([24 x i8], [24 x i8]* @.str.61, i64 0, i64 0), i8* getelementptr inbounds ([18 x i8], [18 x i8]* @.str.62, i64 0, i64 0), i32 92, i8* getelementptr inbounds ([135 x i8], [135 x i8]* @__PRETTY_FUNCTION__._ZN5boost5arrayIN9FastBoard8square_tELm441EEixEm, i64 0, i64 0)) #19, !sourceFile !3, !mergedLineNum !4
  unreachable, !sourceFile !3, !mergedLineNum !4

_ZN5boost5arrayIN9FastBoard8square_tELm441EEixEm.exit: ; preds = %for.body26
  %conv28390 = zext i32 %call27 to i64
  %arrayidx.i = getelementptr inbounds %class.FastBoard, %class.FastBoard* %this, i64 0, i32 5, i32 0, i64 %conv28390
  %43 = load i32, i32* %arrayidx.i, align 4, !tbaa !18, !sourceFile !3, !mergedLineNum !4
  %cmp32 = icmp eq i32 %43, %col, !sourceFile !3, !mergedLineNum !4
  br i1 %cmp32, label %invoke.cont36, label %_ZN5boost5arrayIN9FastBoard8square_tELm441EEixEm.exit260, !sourceFile !3, !mergedLineNum !4

invoke.cont36:                                    ; preds = %_ZN5boost5arrayIN9FastBoard8square_tELm441EEixEm.exit
  %44 = load i64*, i64** %_M_p.i.i.i.i.i.i.i, align 8, !tbaa !35, !sourceFile !3, !mergedLineNum !4
  %45 = lshr i32 %call27, 6
  %div.i.i.i.i.i350.zext = zext i32 %45 to i64
  %46 = and i32 %call27, 63
  %rem.i.i.i.i.i352353 = zext i32 %46 to i64
  %merged.select.i.i.i.i.i = getelementptr i64, i64* %44, i64 %div.i.i.i.i.i350.zext
  %shl.i.i.i = shl nuw i64 1, %rem.i.i.i.i.i352353, !sourceFile !3, !mergedLineNum !4
  %47 = load i64, i64* %merged.select.i.i.i.i.i, align 8
  %merged.select.i = or i64 %47, %shl.i.i.i
  store i64 %merged.select.i, i64* %merged.select.i.i.i.i.i, align 8, !tbaa !42, !sourceFile !3, !mergedLineNum !48
  %48 = load i32, i32* %arrayidx.i236, align 8, !tbaa !22, !sourceFile !3, !mergedLineNum !4
  %add = add nsw i32 %48, %call27, !sourceFile !3, !mergedLineNum !4
  %cmp.i237 = icmp ult i32 %add, 441
  br i1 %cmp.i237, label %_ZN5boost5arrayIN9FastBoard8square_tELm441EEixEm.exit240, label %cond.false.i238, !sourceFile !3, !mergedLineNum !4

cond.false.i238:                                  ; preds = %for.inc.2, %for.inc.1, %for.inc, %invoke.cont36
  call void @__assert_fail(i8* getelementptr inbounds ([24 x i8], [24 x i8]* @.str.61, i64 0, i64 0), i8* getelementptr inbounds ([18 x i8], [18 x i8]* @.str.62, i64 0, i64 0), i32 92, i8* getelementptr inbounds ([135 x i8], [135 x i8]* @__PRETTY_FUNCTION__._ZN5boost5arrayIN9FastBoard8square_tELm441EEixEm, i64 0, i64 0)) #19, !sourceFile !3, !mergedLineNum !4
  unreachable, !sourceFile !3, !mergedLineNum !4

_ZN5boost5arrayIN9FastBoard8square_tELm441EEixEm.exit240: ; preds = %invoke.cont36
  %conv48391 = zext i32 %add to i64
  %arrayidx.i239 = getelementptr inbounds %class.FastBoard, %class.FastBoard* %this, i64 0, i32 5, i32 0, i64 %conv48391
  %49 = load i32, i32* %arrayidx.i239, align 4, !tbaa !18, !sourceFile !3, !mergedLineNum !4
  %cmp51 = icmp eq i32 %49, 2, !sourceFile !3, !mergedLineNum !4
  br i1 %cmp51, label %invoke.cont61, label %for.inc, !sourceFile !3, !mergedLineNum !4

invoke.cont61:                                    ; preds = %_ZN5boost5arrayIN9FastBoard8square_tELm441EEixEm.exit240
  %50 = lshr i32 %add, 6
  %div.i.i.i.i.i246355.zext = zext i32 %50 to i64
  %51 = and i32 %add, 63
  %rem.i.i.i.i.i247357358 = zext i32 %51 to i64
  %merged.select.i.i.i.i.i250 = getelementptr i64, i64* %44, i64 %div.i.i.i.i.i246355.zext
  %shl.i.i.i253 = shl nuw i64 1, %rem.i.i.i.i.i247357358, !sourceFile !3, !mergedLineNum !4
  %52 = load i64, i64* %merged.select.i.i.i.i.i250, align 8
  %merged.select.i256 = or i64 %52, %shl.i.i.i253
  store i64 %merged.select.i256, i64* %merged.select.i.i.i.i.i250, align 8, !tbaa !42, !sourceFile !3, !mergedLineNum !48
  br label %for.inc, !sourceFile !3, !mergedLineNum !4

for.inc:                                          ; preds = %_ZN5boost5arrayIN9FastBoard8square_tELm441EEixEm.exit240, %invoke.cont61
  %53 = load i32, i32* %arrayidx.i236.1, align 4, !tbaa !22, !sourceFile !3, !mergedLineNum !4
  %add.1 = add nsw i32 %53, %call27, !sourceFile !3, !mergedLineNum !4
  %cmp.i237.1 = icmp ult i32 %add.1, 441
  br i1 %cmp.i237.1, label %_ZN5boost5arrayIN9FastBoard8square_tELm441EEixEm.exit240.1, label %cond.false.i238, !sourceFile !3, !mergedLineNum !4

_ZN5boost5arrayIN9FastBoard8square_tELm441EEixEm.exit260: ; preds = %_ZN5boost5arrayIN9FastBoard8square_tELm441EEixEm.exit
  %cmp68 = icmp eq i32 %43, 2, !sourceFile !3, !mergedLineNum !4
  br i1 %cmp68, label %invoke.cont72, label %if.end112, !sourceFile !3, !mergedLineNum !4

invoke.cont72:                                    ; preds = %_ZN5boost5arrayIN9FastBoard8square_tELm441EEixEm.exit260
  %54 = load i64*, i64** %_M_p.i.i.i.i.i.i.i, align 8, !tbaa !35, !sourceFile !3, !mergedLineNum !4
  %55 = lshr i32 %call27, 6
  %div.i.i.i.i.i262360.zext = zext i32 %55 to i64
  %56 = and i32 %call27, 63
  %rem.i.i.i.i.i263362363 = zext i32 %56 to i64
  %merged.select.i.i.i.i.i266 = getelementptr i64, i64* %54, i64 %div.i.i.i.i.i262360.zext
  %shl.i.i.i269 = shl nuw i64 1, %rem.i.i.i.i.i263362363, !sourceFile !3, !mergedLineNum !4
  %57 = load i64, i64* %merged.select.i.i.i.i.i266, align 8, !tbaa !42, !sourceFile !3, !mergedLineNum !4
  %and.i = and i64 %57, %shl.i.i.i269, !sourceFile !3, !mergedLineNum !4
  %tobool.i.not = icmp eq i64 %and.i, 0, !sourceFile !3, !mergedLineNum !4
  br i1 %tobool.i.not, label %if.end112, label %for.body81.preheader, !sourceFile !3, !mergedLineNum !4

for.body81.preheader:                             ; preds = %invoke.cont72
  %58 = load i32, i32* %arrayidx.i275, align 8, !tbaa !22, !sourceFile !3, !mergedLineNum !4
  %add88 = add nsw i32 %58, %call27, !sourceFile !3, !mergedLineNum !4
  %cmp.i277 = icmp ult i32 %add88, 441
  br i1 %cmp.i277, label %_ZN5boost5arrayIN9FastBoard8square_tELm441EEixEm.exit280, label %cond.false.i278, !sourceFile !3, !mergedLineNum !4

cond.false.i278:                                  ; preds = %for.inc107.2, %for.inc107.1, %for.inc107, %for.body81.preheader
  call void @__assert_fail(i8* getelementptr inbounds ([24 x i8], [24 x i8]* @.str.61, i64 0, i64 0), i8* getelementptr inbounds ([18 x i8], [18 x i8]* @.str.62, i64 0, i64 0), i32 92, i8* getelementptr inbounds ([135 x i8], [135 x i8]* @__PRETTY_FUNCTION__._ZN5boost5arrayIN9FastBoard8square_tELm441EEixEm, i64 0, i64 0)) #19, !sourceFile !3, !mergedLineNum !4
  unreachable, !sourceFile !3, !mergedLineNum !4

_ZN5boost5arrayIN9FastBoard8square_tELm441EEixEm.exit280: ; preds = %for.body81.preheader
  %conv89395 = zext i32 %add88 to i64
  %arrayidx.i279 = getelementptr inbounds %class.FastBoard, %class.FastBoard* %this, i64 0, i32 5, i32 0, i64 %conv89395
  %59 = load i32, i32* %arrayidx.i279, align 4, !tbaa !18, !sourceFile !3, !mergedLineNum !4
  %cmp92 = icmp eq i32 %59, 2, !sourceFile !3, !mergedLineNum !4
  br i1 %cmp92, label %invoke.cont102, label %for.inc107, !sourceFile !3, !mergedLineNum !4

invoke.cont102:                                   ; preds = %_ZN5boost5arrayIN9FastBoard8square_tELm441EEixEm.exit280
  %60 = lshr i32 %add88, 6
  %div.i.i.i.i.i286365.zext = zext i32 %60 to i64
  %61 = and i32 %add88, 63
  %rem.i.i.i.i.i287367368 = zext i32 %61 to i64
  %merged.select.i.i.i.i.i290 = getelementptr i64, i64* %54, i64 %div.i.i.i.i.i286365.zext
  %shl.i.i.i293 = shl nuw i64 1, %rem.i.i.i.i.i287367368, !sourceFile !3, !mergedLineNum !4
  %62 = load i64, i64* %merged.select.i.i.i.i.i290, align 8
  %merged.select.i296 = or i64 %62, %shl.i.i.i293
  store i64 %merged.select.i296, i64* %merged.select.i.i.i.i.i290, align 8, !tbaa !42, !sourceFile !3, !mergedLineNum !48
  br label %for.inc107, !sourceFile !3, !mergedLineNum !4

for.inc107:                                       ; preds = %_ZN5boost5arrayIN9FastBoard8square_tELm441EEixEm.exit280, %invoke.cont102
  %63 = load i32, i32* %arrayidx.i275.1, align 4, !tbaa !22, !sourceFile !3, !mergedLineNum !4
  %add88.1 = add nsw i32 %63, %call27, !sourceFile !3, !mergedLineNum !4
  %cmp.i277.1 = icmp ult i32 %add88.1, 441
  br i1 %cmp.i277.1, label %_ZN5boost5arrayIN9FastBoard8square_tELm441EEixEm.exit280.1, label %cond.false.i278, !sourceFile !3, !mergedLineNum !4

if.end112.sink.split:                             ; preds = %_ZN5boost5arrayIN9FastBoard8square_tELm441EEixEm.exit240.3, %_ZN5boost5arrayIN9FastBoard8square_tELm441EEixEm.exit280.3
  %add88.3.sink414 = phi i32 [ %add88.3, %_ZN5boost5arrayIN9FastBoard8square_tELm441EEixEm.exit280.3 ], [ %add.3, %_ZN5boost5arrayIN9FastBoard8square_tELm441EEixEm.exit240.3 ]
  %.sink = phi i64* [ %54, %_ZN5boost5arrayIN9FastBoard8square_tELm441EEixEm.exit280.3 ], [ %44, %_ZN5boost5arrayIN9FastBoard8square_tELm441EEixEm.exit240.3 ]
  %64 = lshr i32 %add88.3.sink414, 6
  %div.i.i.i.i.i286365.zext.3 = zext i32 %64 to i64
  %65 = and i32 %add88.3.sink414, 63
  %rem.i.i.i.i.i287367368.3 = zext i32 %65 to i64
  %merged.select.i.i.i.i.i290.3 = getelementptr i64, i64* %.sink, i64 %div.i.i.i.i.i286365.zext.3
  %shl.i.i.i253.3 = shl nuw i64 1, %rem.i.i.i.i.i287367368.3
  %66 = load i64, i64* %merged.select.i.i.i.i.i290.3, align 8
  %merged.select.i256.3 = or i64 %66, %shl.i.i.i253.3
  store i64 %merged.select.i256.3, i64* %merged.select.i.i.i.i.i290.3, align 8, !tbaa !42
  br label %if.end112

if.end112:                                        ; preds = %if.end112.sink.split, %_ZN5boost5arrayIN9FastBoard8square_tELm441EEixEm.exit240.3, %_ZN5boost5arrayIN9FastBoard8square_tELm441EEixEm.exit280.3, %_ZN5boost5arrayIN9FastBoard8square_tELm441EEixEm.exit260, %invoke.cont72
  %inc115 = add nuw nsw i32 %j.0380, 1, !sourceFile !3, !mergedLineNum !4
  %67 = load i32, i32* %m_boardsize, align 8, !tbaa !5, !sourceFile !3, !mergedLineNum !4
  %cmp24 = icmp slt i32 %inc115, %67, !sourceFile !3, !mergedLineNum !4
  br i1 %cmp24, label %for.body26, label %for.cond.cleanup25, !llvm.loop !49, !sourceFile !3, !mergedLineNum !4

do.end:                                           ; preds = %land.rhs.i.i, %for.inc.i.i.i.i.i.i
  %tobool.not.i.i = icmp eq i64* %30, null, !sourceFile !3, !mergedLineNum !4
  br i1 %tobool.not.i.i, label %_ZNSt13_Bvector_baseISaIbEED2Ev.exit, label %if.then.i.i, !sourceFile !3, !mergedLineNum !4

if.then.i.i:                                      ; preds = %do.end
  %sub.ptr.rhs.cast.i.i.i.i.le405 = ptrtoint i64* %30 to i64
  %68 = load i64*, i64** %_M_end_of_storage.i.i.i.i.i162, align 8, !tbaa !39
  %sub.ptr.lhs.cast.i.i = ptrtoint i64* %68 to i64, !sourceFile !3, !mergedLineNum !4
  %sub.ptr.sub.i.i = sub i64 %sub.ptr.lhs.cast.i.i, %sub.ptr.rhs.cast.i.i.i.i.le405, !sourceFile !3, !mergedLineNum !4
  %sub.ptr.div.i.i = ashr exact i64 %sub.ptr.sub.i.i, 3
  %idx.neg.i.i = sub nsw i64 0, %sub.ptr.div.i.i, !sourceFile !3, !mergedLineNum !4
  %add.ptr.i.i = getelementptr inbounds i64, i64* %68, i64 %idx.neg.i.i, !sourceFile !3, !mergedLineNum !4
  %69 = bitcast i64* %add.ptr.i.i to i8*, !sourceFile !3, !mergedLineNum !4
  call void @_ZdlPv(i8* %69) #22, !sourceFile !3, !mergedLineNum !4
  store i64* null, i64** %_M_p.i.i.i.i.i.i.i160, align 8
  br label %_ZNSt13_Bvector_baseISaIbEED2Ev.exit, !sourceFile !3, !mergedLineNum !4

_ZNSt13_Bvector_baseISaIbEED2Ev.exit:             ; preds = %do.end, %if.then.i.i
  call void @llvm.lifetime.end.p0i8(i64 40, i8* nonnull %9) #20, !sourceFile !3, !mergedLineNum !4
  ret void, !sourceFile !3, !mergedLineNum !4

if.then.i.i310:                                   ; preds = %lpad19
  %70 = load i64*, i64** %_M_end_of_storage.i.i.i.i.i162, align 8, !tbaa !39
  %sub.ptr.lhs.cast.i.i301 = ptrtoint i64* %70 to i64, !sourceFile !3, !mergedLineNum !4
  %sub.ptr.rhs.cast.i.i302 = ptrtoint i64* %41 to i64, !sourceFile !3, !mergedLineNum !4
  %sub.ptr.sub.i.i303 = sub i64 %sub.ptr.lhs.cast.i.i301, %sub.ptr.rhs.cast.i.i302, !sourceFile !3, !mergedLineNum !4
  %sub.ptr.div.i.i304 = ashr exact i64 %sub.ptr.sub.i.i303, 3
  %idx.neg.i.i305 = sub nsw i64 0, %sub.ptr.div.i.i304, !sourceFile !3, !mergedLineNum !4
  %add.ptr.i.i306 = getelementptr inbounds i64, i64* %70, i64 %idx.neg.i.i305, !sourceFile !3, !mergedLineNum !4
  %71 = bitcast i64* %add.ptr.i.i306 to i8*, !sourceFile !3, !mergedLineNum !4
  call void @_ZdlPv(i8* %71) #22, !sourceFile !3, !mergedLineNum !4
  br label %ehcleanup125, !sourceFile !3, !mergedLineNum !4

ehcleanup125:                                     ; preds = %if.then.i.i310, %lpad19, %lpad5
  %.pn.pn.pn = phi { i8*, i32 } [ %39, %lpad5 ], [ %40, %lpad19 ], [ %40, %if.then.i.i310 ]
  call void @llvm.lifetime.end.p0i8(i64 40, i8* nonnull %9) #20, !sourceFile !3, !mergedLineNum !4
  %72 = load i64*, i64** %_M_p.i.i.i.i.i.i.i, align 8, !tbaa !35, !sourceFile !3, !mergedLineNum !4
  %tobool.not.i.i313 = icmp eq i64* %72, null, !sourceFile !3, !mergedLineNum !4
  br i1 %tobool.not.i.i313, label %eh.resume, label %if.then.i.i324, !sourceFile !3, !mergedLineNum !4

if.then.i.i324:                                   ; preds = %ehcleanup125
  %73 = load i64*, i64** %_M_end_of_storage.i.i.i.i.i, align 8, !tbaa !39
  %sub.ptr.lhs.cast.i.i315 = ptrtoint i64* %73 to i64, !sourceFile !3, !mergedLineNum !4
  %sub.ptr.rhs.cast.i.i316 = ptrtoint i64* %72 to i64, !sourceFile !3, !mergedLineNum !4
  %sub.ptr.sub.i.i317 = sub i64 %sub.ptr.lhs.cast.i.i315, %sub.ptr.rhs.cast.i.i316, !sourceFile !3, !mergedLineNum !4
  %sub.ptr.div.i.i318 = ashr exact i64 %sub.ptr.sub.i.i317, 3
  %idx.neg.i.i319 = sub nsw i64 0, %sub.ptr.div.i.i318, !sourceFile !3, !mergedLineNum !4
  %add.ptr.i.i320 = getelementptr inbounds i64, i64* %73, i64 %idx.neg.i.i319, !sourceFile !3, !mergedLineNum !4
  %74 = bitcast i64* %add.ptr.i.i320 to i8*, !sourceFile !3, !mergedLineNum !4
  call void @_ZdlPv(i8* %74) #22, !sourceFile !3, !mergedLineNum !4
  store i64* null, i64** %_M_p.i.i.i.i.i.i.i, align 8
  store i32 0, i32* %1, align 8
  store i64* null, i64** %_M_p.i.i3.i.i.i.i.i, align 8
  store i32 0, i32* %2, align 8
  store i64* null, i64** %_M_end_of_storage.i.i.i.i.i, align 8
  br label %eh.resume, !sourceFile !3, !mergedLineNum !4

eh.resume:                                        ; preds = %if.then.i.i324, %ehcleanup125
  resume { i8*, i32 } %.pn.pn.pn, !sourceFile !3, !mergedLineNum !4

_ZN5boost5arrayIN9FastBoard8square_tELm441EEixEm.exit280.1: ; preds = %for.inc107
  %conv89.1396 = zext i32 %add88.1 to i64
  %arrayidx.i279.1 = getelementptr inbounds %class.FastBoard, %class.FastBoard* %this, i64 0, i32 5, i32 0, i64 %conv89.1396
  %75 = load i32, i32* %arrayidx.i279.1, align 4, !tbaa !18, !sourceFile !3, !mergedLineNum !4
  %cmp92.1 = icmp eq i32 %75, 2, !sourceFile !3, !mergedLineNum !4
  br i1 %cmp92.1, label %invoke.cont102.1, label %for.inc107.1, !sourceFile !3, !mergedLineNum !4

invoke.cont102.1:                                 ; preds = %_ZN5boost5arrayIN9FastBoard8square_tELm441EEixEm.exit280.1
  %76 = lshr i32 %add88.1, 6
  %div.i.i.i.i.i286365.zext.1 = zext i32 %76 to i64
  %77 = and i32 %add88.1, 63
  %rem.i.i.i.i.i287367368.1 = zext i32 %77 to i64
  %merged.select.i.i.i.i.i290.1 = getelementptr i64, i64* %54, i64 %div.i.i.i.i.i286365.zext.1
  %shl.i.i.i293.1 = shl nuw i64 1, %rem.i.i.i.i.i287367368.1, !sourceFile !3, !mergedLineNum !4
  %78 = load i64, i64* %merged.select.i.i.i.i.i290.1, align 8
  %merged.select.i296.1 = or i64 %78, %shl.i.i.i293.1
  store i64 %merged.select.i296.1, i64* %merged.select.i.i.i.i.i290.1, align 8, !tbaa !42, !sourceFile !3, !mergedLineNum !48
  br label %for.inc107.1, !sourceFile !3, !mergedLineNum !4

for.inc107.1:                                     ; preds = %invoke.cont102.1, %_ZN5boost5arrayIN9FastBoard8square_tELm441EEixEm.exit280.1
  %79 = load i32, i32* %arrayidx.i275.2, align 8, !tbaa !22, !sourceFile !3, !mergedLineNum !4
  %add88.2 = add nsw i32 %79, %call27, !sourceFile !3, !mergedLineNum !4
  %cmp.i277.2 = icmp ult i32 %add88.2, 441
  br i1 %cmp.i277.2, label %_ZN5boost5arrayIN9FastBoard8square_tELm441EEixEm.exit280.2, label %cond.false.i278, !sourceFile !3, !mergedLineNum !4

_ZN5boost5arrayIN9FastBoard8square_tELm441EEixEm.exit280.2: ; preds = %for.inc107.1
  %conv89.2397 = zext i32 %add88.2 to i64
  %arrayidx.i279.2 = getelementptr inbounds %class.FastBoard, %class.FastBoard* %this, i64 0, i32 5, i32 0, i64 %conv89.2397
  %80 = load i32, i32* %arrayidx.i279.2, align 4, !tbaa !18, !sourceFile !3, !mergedLineNum !4
  %cmp92.2 = icmp eq i32 %80, 2, !sourceFile !3, !mergedLineNum !4
  br i1 %cmp92.2, label %invoke.cont102.2, label %for.inc107.2, !sourceFile !3, !mergedLineNum !4

invoke.cont102.2:                                 ; preds = %_ZN5boost5arrayIN9FastBoard8square_tELm441EEixEm.exit280.2
  %81 = lshr i32 %add88.2, 6
  %div.i.i.i.i.i286365.zext.2 = zext i32 %81 to i64
  %82 = and i32 %add88.2, 63
  %rem.i.i.i.i.i287367368.2 = zext i32 %82 to i64
  %merged.select.i.i.i.i.i290.2 = getelementptr i64, i64* %54, i64 %div.i.i.i.i.i286365.zext.2
  %shl.i.i.i293.2 = shl nuw i64 1, %rem.i.i.i.i.i287367368.2, !sourceFile !3, !mergedLineNum !4
  %83 = load i64, i64* %merged.select.i.i.i.i.i290.2, align 8
  %merged.select.i296.2 = or i64 %83, %shl.i.i.i293.2
  store i64 %merged.select.i296.2, i64* %merged.select.i.i.i.i.i290.2, align 8, !tbaa !42, !sourceFile !3, !mergedLineNum !48
  br label %for.inc107.2, !sourceFile !3, !mergedLineNum !4

for.inc107.2:                                     ; preds = %invoke.cont102.2, %_ZN5boost5arrayIN9FastBoard8square_tELm441EEixEm.exit280.2
  %84 = load i32, i32* %arrayidx.i275.3, align 4, !tbaa !22, !sourceFile !3, !mergedLineNum !4
  %add88.3 = add nsw i32 %84, %call27, !sourceFile !3, !mergedLineNum !4
  %cmp.i277.3 = icmp ult i32 %add88.3, 441
  br i1 %cmp.i277.3, label %_ZN5boost5arrayIN9FastBoard8square_tELm441EEixEm.exit280.3, label %cond.false.i278, !sourceFile !3, !mergedLineNum !4

_ZN5boost5arrayIN9FastBoard8square_tELm441EEixEm.exit280.3: ; preds = %for.inc107.2
  %conv89.3398 = zext i32 %add88.3 to i64
  %arrayidx.i279.3 = getelementptr inbounds %class.FastBoard, %class.FastBoard* %this, i64 0, i32 5, i32 0, i64 %conv89.3398
  %85 = load i32, i32* %arrayidx.i279.3, align 4, !tbaa !18, !sourceFile !3, !mergedLineNum !4
  %cmp92.3 = icmp eq i32 %85, 2, !sourceFile !3, !mergedLineNum !4
  br i1 %cmp92.3, label %if.end112.sink.split, label %if.end112, !sourceFile !3, !mergedLineNum !4

_ZN5boost5arrayIN9FastBoard8square_tELm441EEixEm.exit240.1: ; preds = %for.inc
  %conv48.1392 = zext i32 %add.1 to i64
  %arrayidx.i239.1 = getelementptr inbounds %class.FastBoard, %class.FastBoard* %this, i64 0, i32 5, i32 0, i64 %conv48.1392
  %86 = load i32, i32* %arrayidx.i239.1, align 4, !tbaa !18, !sourceFile !3, !mergedLineNum !4
  %cmp51.1 = icmp eq i32 %86, 2, !sourceFile !3, !mergedLineNum !4
  br i1 %cmp51.1, label %invoke.cont61.1, label %for.inc.1, !sourceFile !3, !mergedLineNum !4

invoke.cont61.1:                                  ; preds = %_ZN5boost5arrayIN9FastBoard8square_tELm441EEixEm.exit240.1
  %87 = lshr i32 %add.1, 6
  %div.i.i.i.i.i246355.zext.1 = zext i32 %87 to i64
  %88 = and i32 %add.1, 63
  %rem.i.i.i.i.i247357358.1 = zext i32 %88 to i64
  %merged.select.i.i.i.i.i250.1 = getelementptr i64, i64* %44, i64 %div.i.i.i.i.i246355.zext.1
  %shl.i.i.i253.1 = shl nuw i64 1, %rem.i.i.i.i.i247357358.1, !sourceFile !3, !mergedLineNum !4
  %89 = load i64, i64* %merged.select.i.i.i.i.i250.1, align 8
  %merged.select.i256.1 = or i64 %89, %shl.i.i.i253.1
  store i64 %merged.select.i256.1, i64* %merged.select.i.i.i.i.i250.1, align 8, !tbaa !42, !sourceFile !3, !mergedLineNum !48
  br label %for.inc.1, !sourceFile !3, !mergedLineNum !4

for.inc.1:                                        ; preds = %invoke.cont61.1, %_ZN5boost5arrayIN9FastBoard8square_tELm441EEixEm.exit240.1
  %90 = load i32, i32* %arrayidx.i236.2, align 8, !tbaa !22, !sourceFile !3, !mergedLineNum !4
  %add.2 = add nsw i32 %90, %call27, !sourceFile !3, !mergedLineNum !4
  %cmp.i237.2 = icmp ult i32 %add.2, 441
  br i1 %cmp.i237.2, label %_ZN5boost5arrayIN9FastBoard8square_tELm441EEixEm.exit240.2, label %cond.false.i238, !sourceFile !3, !mergedLineNum !4

_ZN5boost5arrayIN9FastBoard8square_tELm441EEixEm.exit240.2: ; preds = %for.inc.1
  %conv48.2393 = zext i32 %add.2 to i64
  %arrayidx.i239.2 = getelementptr inbounds %class.FastBoard, %class.FastBoard* %this, i64 0, i32 5, i32 0, i64 %conv48.2393
  %91 = load i32, i32* %arrayidx.i239.2, align 4, !tbaa !18, !sourceFile !3, !mergedLineNum !4
  %cmp51.2 = icmp eq i32 %91, 2, !sourceFile !3, !mergedLineNum !4
  br i1 %cmp51.2, label %invoke.cont61.2, label %for.inc.2, !sourceFile !3, !mergedLineNum !4

invoke.cont61.2:                                  ; preds = %_ZN5boost5arrayIN9FastBoard8square_tELm441EEixEm.exit240.2
  %92 = lshr i32 %add.2, 6
  %div.i.i.i.i.i246355.zext.2 = zext i32 %92 to i64
  %93 = and i32 %add.2, 63
  %rem.i.i.i.i.i247357358.2 = zext i32 %93 to i64
  %merged.select.i.i.i.i.i250.2 = getelementptr i64, i64* %44, i64 %div.i.i.i.i.i246355.zext.2
  %shl.i.i.i253.2 = shl nuw i64 1, %rem.i.i.i.i.i247357358.2, !sourceFile !3, !mergedLineNum !4
  %94 = load i64, i64* %merged.select.i.i.i.i.i250.2, align 8
  %merged.select.i256.2 = or i64 %94, %shl.i.i.i253.2
  store i64 %merged.select.i256.2, i64* %merged.select.i.i.i.i.i250.2, align 8, !tbaa !42, !sourceFile !3, !mergedLineNum !48
  br label %for.inc.2, !sourceFile !3, !mergedLineNum !4

for.inc.2:                                        ; preds = %invoke.cont61.2, %_ZN5boost5arrayIN9FastBoard8square_tELm441EEixEm.exit240.2
  %95 = load i32, i32* %arrayidx.i236.3, align 4, !tbaa !22, !sourceFile !3, !mergedLineNum !4
  %add.3 = add nsw i32 %95, %call27, !sourceFile !3, !mergedLineNum !4
  %cmp.i237.3 = icmp ult i32 %add.3, 441
  br i1 %cmp.i237.3, label %_ZN5boost5arrayIN9FastBoard8square_tELm441EEixEm.exit240.3, label %cond.false.i238, !sourceFile !3, !mergedLineNum !4

_ZN5boost5arrayIN9FastBoard8square_tELm441EEixEm.exit240.3: ; preds = %for.inc.2
  %conv48.3394 = zext i32 %add.3 to i64
  %arrayidx.i239.3 = getelementptr inbounds %class.FastBoard, %class.FastBoard* %this, i64 0, i32 5, i32 0, i64 %conv48.3394
  %96 = load i32, i32* %arrayidx.i239.3, align 4, !tbaa !18, !sourceFile !3, !mergedLineNum !4
  %cmp51.3 = icmp eq i32 %96, 2, !sourceFile !3, !mergedLineNum !4
  br i1 %cmp51.3, label %if.end112.sink.split, label %if.end112, !sourceFile !3, !mergedLineNum !4
}

declare dso_local i32 @__gxx_personality_v0(...)

; Function Attrs: uwtable
define linkonce_odr dso_local nonnull align 8 dereferenceable(40) %"class.std::vector.6"* @_ZNSt6vectorIbSaIbEEaSERKS1_(%"class.std::vector.6"* nonnull align 8 dereferenceable(40) %this, %"class.std::vector.6"* nonnull align 8 dereferenceable(40) %__x) local_unnamed_addr #4 comdat align 2 personality i32 (...)* @__gxx_personality_v0 {
entry:
  %cmp = icmp eq %"class.std::vector.6"* %__x, %this, !sourceFile !3, !mergedLineNum !4
  br i1 %cmp, label %return, label %if.end, !sourceFile !3, !mergedLineNum !4

if.end:                                           ; preds = %entry
  %_M_p.i.i.i = getelementptr inbounds %"class.std::vector.6", %"class.std::vector.6"* %__x, i64 0, i32 0, i32 0, i32 0, i32 1, i32 0, i32 0
  %0 = load i64*, i64** %_M_p.i.i.i, align 8, !tbaa !35, !sourceFile !3, !mergedLineNum !4
  %1 = getelementptr inbounds %"class.std::vector.6", %"class.std::vector.6"* %__x, i64 0, i32 0, i32 0, i32 0, i32 1, i32 0, i32 1
  %2 = load i32, i32* %1, align 8, !tbaa !38, !sourceFile !3, !mergedLineNum !4
  %_M_p.i.i = getelementptr inbounds %"class.std::vector.6", %"class.std::vector.6"* %__x, i64 0, i32 0, i32 0, i32 0, i32 0, i32 0, i32 0
  %3 = load i64*, i64** %_M_p.i.i, align 8, !tbaa !35, !sourceFile !3, !mergedLineNum !4
  %sub.ptr.lhs.cast.i.i = ptrtoint i64* %0 to i64
  %sub.ptr.rhs.cast.i.i = ptrtoint i64* %3 to i64
  %sub.ptr.sub.i.i = sub i64 %sub.ptr.lhs.cast.i.i, %sub.ptr.rhs.cast.i.i
  %mul.i.i = shl nsw i64 %sub.ptr.sub.i.i, 3
  %conv.i.i = zext i32 %2 to i64
  %add.i.i = add nsw i64 %mul.i.i, %conv.i.i
  %_M_end_of_storage.i.i = getelementptr inbounds %"class.std::vector.6", %"class.std::vector.6"* %this, i64 0, i32 0, i32 0, i32 0, i32 2
  %4 = load i64*, i64** %_M_end_of_storage.i.i, align 8, !tbaa !39, !sourceFile !3, !mergedLineNum !4
  %_M_p.i.i21 = getelementptr inbounds %"class.std::vector.6", %"class.std::vector.6"* %this, i64 0, i32 0, i32 0, i32 0, i32 0, i32 0, i32 0
  %5 = load i64*, i64** %_M_p.i.i21, align 8, !tbaa !35, !sourceFile !3, !mergedLineNum !4
  %sub.ptr.lhs.cast.i.i22 = ptrtoint i64* %4 to i64
  %sub.ptr.rhs.cast.i.i23 = ptrtoint i64* %5 to i64
  %sub.ptr.sub.i.i24 = sub i64 %sub.ptr.lhs.cast.i.i22, %sub.ptr.rhs.cast.i.i23
  %mul.i.i25 = shl nsw i64 %sub.ptr.sub.i.i24, 3
  %cmp3 = icmp ugt i64 %add.i.i, %mul.i.i25, !sourceFile !3, !mergedLineNum !4
  br i1 %cmp3, label %if.then4, label %if.end6, !sourceFile !3, !mergedLineNum !4

if.then4:                                         ; preds = %if.end
  %tobool.not.i = icmp eq i64* %5, null, !sourceFile !3, !mergedLineNum !4
  br i1 %tobool.not.i, label %if.then.i37, label %_ZNSt13_Bvector_baseISaIbEE13_M_deallocateEv.exit, !sourceFile !3, !mergedLineNum !4

_ZNSt13_Bvector_baseISaIbEE13_M_deallocateEv.exit: ; preds = %if.then4
  %sub.ptr.div.i = ashr exact i64 %sub.ptr.sub.i.i24, 3
  %idx.neg.i = sub nsw i64 0, %sub.ptr.div.i, !sourceFile !3, !mergedLineNum !4
  %add.ptr.i = getelementptr inbounds i64, i64* %4, i64 %idx.neg.i, !sourceFile !3, !mergedLineNum !4
  %6 = bitcast i64* %add.ptr.i to i8*, !sourceFile !3, !mergedLineNum !4
  tail call void @_ZdlPv(i8* %6) #22, !sourceFile !3, !mergedLineNum !4
  store i64* null, i64** %_M_p.i.i21, align 8
  %ref.tmp.sroa.4.0..sroa_idx3.i.i = getelementptr inbounds %"class.std::vector.6", %"class.std::vector.6"* %this, i64 0, i32 0, i32 0, i32 0, i32 0, i32 0, i32 1
  store i32 0, i32* %ref.tmp.sroa.4.0..sroa_idx3.i.i, align 8
  %ref.tmp.sroa.58.0..sroa_idx9.i.i = getelementptr inbounds %"class.std::vector.6", %"class.std::vector.6"* %this, i64 0, i32 0, i32 0, i32 0, i32 1, i32 0, i32 0
  store i64* null, i64** %ref.tmp.sroa.58.0..sroa_idx9.i.i, align 8
  %ref.tmp.sroa.6.0..sroa_idx11.i.i = getelementptr inbounds %"class.std::vector.6", %"class.std::vector.6"* %this, i64 0, i32 0, i32 0, i32 0, i32 1, i32 0, i32 1
  store i32 0, i32* %ref.tmp.sroa.6.0..sroa_idx11.i.i, align 8
  store i64* null, i64** %_M_end_of_storage.i.i, align 8
  %.pre = load i64*, i64** %_M_p.i.i.i, align 8, !tbaa !35
  %.pre51 = load i32, i32* %1, align 8, !tbaa !38
  %.pre52 = load i64*, i64** %_M_p.i.i, align 8, !tbaa !35
  %.pre56 = ptrtoint i64* %.pre to i64, !sourceFile !3, !mergedLineNum !4
  %.pre57 = ptrtoint i64* %.pre52 to i64, !sourceFile !3, !mergedLineNum !4
  %.pre58 = sub i64 %.pre56, %.pre57, !sourceFile !3, !mergedLineNum !4
  %.pre59 = shl nsw i64 %.pre58, 3
  %.pre60 = zext i32 %.pre51 to i64, !sourceFile !3, !mergedLineNum !4
  %.pre61 = add nsw i64 %.pre59, %.pre60, !sourceFile !3, !mergedLineNum !4
  %tobool.not.i35 = icmp eq i64 %.pre61, 0, !sourceFile !3, !mergedLineNum !4
  br i1 %tobool.not.i35, label %if.end6, label %if.then.i37, !sourceFile !3, !mergedLineNum !4

if.then.i37:                                      ; preds = %if.then4, %_ZNSt13_Bvector_baseISaIbEE13_M_deallocateEv.exit
  %add.i.i34.pre-phi68 = phi i64 [ %.pre61, %_ZNSt13_Bvector_baseISaIbEE13_M_deallocateEv.exit ], [ %add.i.i, %if.then4 ]
  %sub.i.i.i = add i64 %add.i.i34.pre-phi68, 63
  %7 = lshr i64 %sub.i.i.i, 3
  %mul.i.i.i.i = and i64 %7, 2305843009213693944
  %call5.i.i.i.i = tail call noalias nonnull i8* @_Znwm(i64 %mul.i.i.i.i) #21, !sourceFile !3, !mergedLineNum !4
  %8 = bitcast i8* %call5.i.i.i.i to i64*
  %div.i.i = lshr i64 %sub.i.i.i, 6
  %add.ptr.i36 = getelementptr inbounds i64, i64* %8, i64 %div.i.i, !sourceFile !3, !mergedLineNum !4
  store i64* %add.ptr.i36, i64** %_M_end_of_storage.i.i, align 8, !tbaa !39, !sourceFile !3, !mergedLineNum !4
  %9 = bitcast %"class.std::vector.6"* %this to i8**
  store i8* %call5.i.i.i.i, i8** %9, align 8
  %__start.sroa.5.0..sroa_idx18.i = getelementptr inbounds %"class.std::vector.6", %"class.std::vector.6"* %this, i64 0, i32 0, i32 0, i32 0, i32 0, i32 0, i32 1
  store i32 0, i32* %__start.sroa.5.0..sroa_idx18.i, align 8
  %div.i.i.i.i = sdiv i64 %add.i.i34.pre-phi68, 64, !sourceFile !3, !mergedLineNum !4
  %rem.i.i.i.i = srem i64 %add.i.i34.pre-phi68, 64, !sourceFile !3, !mergedLineNum !4
  %rem.lobit.i.i.i.i = ashr i64 %rem.i.i.i.i, 63
  %merged.select.idx.i.i.i.i = add nsw i64 %rem.lobit.i.i.i.i, %div.i.i.i.i
  %merged.select.i.i.i.i = getelementptr i64, i64* %8, i64 %merged.select.idx.i.i.i.i
  %cmp.i.i.i.i = icmp slt i64 %rem.i.i.i.i, 0, !sourceFile !3, !mergedLineNum !4
  %10 = add nsw i64 %rem.i.i.i.i, 64, !sourceFile !3, !mergedLineNum !45
  %moved.sel.i.i.i.i = select i1 %cmp.i.i.i.i, i64 %10, i64 %rem.i.i.i.i
  %conv4.i.i.i.i = trunc i64 %moved.sel.i.i.i.i to i32, !sourceFile !3, !mergedLineNum !4
  %ref.tmp.sroa.0.0..sroa_idx.i = getelementptr inbounds %"class.std::vector.6", %"class.std::vector.6"* %this, i64 0, i32 0, i32 0, i32 0, i32 1, i32 0, i32 0
  store i64* %merged.select.i.i.i.i, i64** %ref.tmp.sroa.0.0..sroa_idx.i, align 8, !sourceFile !3, !mergedLineNum !4
  %ref.tmp.sroa.4.0..sroa_idx9.i = getelementptr inbounds %"class.std::vector.6", %"class.std::vector.6"* %this, i64 0, i32 0, i32 0, i32 0, i32 1, i32 0, i32 1
  store i32 %conv4.i.i.i.i, i32* %ref.tmp.sroa.4.0..sroa_idx9.i, align 8, !sourceFile !3, !mergedLineNum !4
  %.pre53 = load i64*, i64** %_M_p.i.i, align 8, !tbaa !35
  %.pre54 = load i64*, i64** %_M_p.i.i.i, align 8, !tbaa !35
  %.pre55 = load i32, i32* %1, align 8, !tbaa !38
  %.pre62 = ptrtoint i64* %.pre54 to i64, !sourceFile !3, !mergedLineNum !4
  %.pre63 = ptrtoint i64* %.pre53 to i64, !sourceFile !3, !mergedLineNum !4
  br label %if.end6, !sourceFile !3, !mergedLineNum !4

if.end6:                                          ; preds = %if.then.i37, %_ZNSt13_Bvector_baseISaIbEE13_M_deallocateEv.exit, %if.end
  %sub.ptr.rhs.cast.i.i.i.i.i.i.pre-phi = phi i64 [ %.pre63, %if.then.i37 ], [ %.pre57, %_ZNSt13_Bvector_baseISaIbEE13_M_deallocateEv.exit ], [ %sub.ptr.rhs.cast.i.i, %if.end ]
  %sub.ptr.lhs.cast.i.i.i.i.i.i.pre-phi = phi i64 [ %.pre62, %if.then.i37 ], [ %.pre56, %_ZNSt13_Bvector_baseISaIbEE13_M_deallocateEv.exit ], [ %sub.ptr.lhs.cast.i.i, %if.end ]
  %11 = phi i64* [ %8, %if.then.i37 ], [ null, %_ZNSt13_Bvector_baseISaIbEE13_M_deallocateEv.exit ], [ %5, %if.end ]
  %12 = phi i32 [ %.pre55, %if.then.i37 ], [ %.pre51, %_ZNSt13_Bvector_baseISaIbEE13_M_deallocateEv.exit ], [ %2, %if.end ]
  %13 = phi i64* [ %.pre54, %if.then.i37 ], [ %.pre, %_ZNSt13_Bvector_baseISaIbEE13_M_deallocateEv.exit ], [ %0, %if.end ]
  %14 = phi i64* [ %.pre53, %if.then.i37 ], [ %.pre52, %_ZNSt13_Bvector_baseISaIbEE13_M_deallocateEv.exit ], [ %3, %if.end ]
  %sub.ptr.sub.i.i.i.i.i.i = sub i64 %sub.ptr.lhs.cast.i.i.i.i.i.i.pre-phi, %sub.ptr.rhs.cast.i.i.i.i.i.i.pre-phi, !sourceFile !3, !mergedLineNum !4
  %cmp.i.i.i.i.i.i = icmp sgt i64 %sub.ptr.sub.i.i.i.i.i.i, 8
  br i1 %cmp.i.i.i.i.i.i, label %if.then.i.i.i.i.i.i, label %if.else.i.i.i.i.i.i, !prof !50, !sourceFile !3, !mergedLineNum !4

if.then.i.i.i.i.i.i:                              ; preds = %if.end6
  %15 = bitcast i64* %11 to i8*, !sourceFile !3, !mergedLineNum !4
  %16 = bitcast i64* %14 to i8*, !sourceFile !3, !mergedLineNum !4
  tail call void @llvm.memmove.p0i8.p0i8.i64(i8* align 8 %15, i8* align 8 %16, i64 %sub.ptr.sub.i.i.i.i.i.i, i1 false), !sourceFile !3, !mergedLineNum !4
  br label %_ZSt4copyIPmS0_ET0_T_S2_S1_.exit.i, !sourceFile !3, !mergedLineNum !4

if.else.i.i.i.i.i.i:                              ; preds = %if.end6
  %cmp1.i.i.i.i.i.i = icmp eq i64 %sub.ptr.sub.i.i.i.i.i.i, 8
  br i1 %cmp1.i.i.i.i.i.i, label %if.then2.i.i.i.i.i.i, label %_ZSt4copyIPmS0_ET0_T_S2_S1_.exit.i, !sourceFile !3, !mergedLineNum !4

if.then2.i.i.i.i.i.i:                             ; preds = %if.else.i.i.i.i.i.i
  %17 = load i64, i64* %14, align 8, !tbaa !42, !sourceFile !3, !mergedLineNum !4
  store i64 %17, i64* %11, align 8, !tbaa !42, !sourceFile !3, !mergedLineNum !4
  br label %_ZSt4copyIPmS0_ET0_T_S2_S1_.exit.i, !sourceFile !3, !mergedLineNum !4

_ZSt4copyIPmS0_ET0_T_S2_S1_.exit.i:               ; preds = %if.then2.i.i.i.i.i.i, %if.else.i.i.i.i.i.i, %if.then.i.i.i.i.i.i
  %sub.ptr.div.i.i.i.i.i.i = ashr exact i64 %sub.ptr.sub.i.i.i.i.i.i, 3
  %add.ptr.i.i.i.i.i.i = getelementptr inbounds i64, i64* %11, i64 %sub.ptr.div.i.i.i.i.i.i, !sourceFile !3, !mergedLineNum !4
  %cmp30.i.i.i.i.i.not.i = icmp eq i32 %12, 0
  br i1 %cmp30.i.i.i.i.i.not.i, label %_ZNSt6vectorIbSaIbEE15_M_copy_alignedESt19_Bit_const_iteratorS2_St13_Bit_iterator.exit, label %for.body.i.i.i.i.i.preheader.i, !sourceFile !3, !mergedLineNum !4

for.body.i.i.i.i.i.preheader.i:                   ; preds = %_ZSt4copyIPmS0_ET0_T_S2_S1_.exit.i
  %conv.i.i.i.i.i.i.i = zext i32 %12 to i64, !sourceFile !3, !mergedLineNum !4
  br label %for.body.i.i.i.i.i.i

for.body.i.i.i.i.i.i:                             ; preds = %for.body.i.i.i.i.i.i, %for.body.i.i.i.i.i.preheader.i
  %__n.035.i.i.i.i.i.i = phi i64 [ %dec.i.i.i.i.i.i, %for.body.i.i.i.i.i.i ], [ %conv.i.i.i.i.i.i.i, %for.body.i.i.i.i.i.preheader.i ]
  %__first.sroa.5.034.i.i.i.i.i.i = phi i32 [ %merged.select.i.i.i.i.i.i.i.i, %for.body.i.i.i.i.i.i ], [ 0, %for.body.i.i.i.i.i.preheader.i ]
  %__first.sroa.0.033.i.i.i.i.i.i = phi i64* [ %merged.select5.i.i.i.i.i.i.i.i, %for.body.i.i.i.i.i.i ], [ %13, %for.body.i.i.i.i.i.preheader.i ]
  %__result.sroa.0.032.i.i.i.i.i.i = phi i64* [ %merged.select5.i.i20.i.i.i.i.i.i, %for.body.i.i.i.i.i.i ], [ %add.ptr.i.i.i.i.i.i, %for.body.i.i.i.i.i.preheader.i ]
  %__result.sroa.5.031.i.i.i.i.i.i = phi i32 [ %merged.select.i.i18.i.i.i.i.i.i, %for.body.i.i.i.i.i.i ], [ 0, %for.body.i.i.i.i.i.preheader.i ]
  %sh_prom.i.i.i.i.i.i.i = zext i32 %__first.sroa.5.034.i.i.i.i.i.i to i64, !sourceFile !3, !mergedLineNum !4
  %shl.i.i.i.i.i.i.i = shl nuw i64 1, %sh_prom.i.i.i.i.i.i.i, !sourceFile !3, !mergedLineNum !4
  %18 = load i64, i64* %__first.sroa.0.033.i.i.i.i.i.i, align 8, !tbaa !42, !sourceFile !3, !mergedLineNum !4
  %and.i.i.i.i.i.i.i.i = and i64 %18, %shl.i.i.i.i.i.i.i, !sourceFile !3, !mergedLineNum !4
  %tobool.i.i.not.i.i.i.i.i.i = icmp eq i64 %and.i.i.i.i.i.i.i.i, 0, !sourceFile !3, !mergedLineNum !4
  %sh_prom.i14.i.i.i.i.i.i = zext i32 %__result.sroa.5.031.i.i.i.i.i.i to i64, !sourceFile !3, !mergedLineNum !4
  %shl.i15.i.i.i.i.i.i = shl nuw i64 1, %sh_prom.i14.i.i.i.i.i.i, !sourceFile !3, !mergedLineNum !4
  %19 = xor i64 %shl.i15.i.i.i.i.i.i, -1, !sourceFile !3, !mergedLineNum !48
  %20 = load i64, i64* %__result.sroa.0.032.i.i.i.i.i.i, align 8
  %21 = and i64 %20, %19, !sourceFile !3, !mergedLineNum !48
  %merged.select.i.i.i.i.i.i.i = or i64 %20, %shl.i15.i.i.i.i.i.i
  %merged.select6.i.i.i.i.i.i.i = select i1 %tobool.i.i.not.i.i.i.i.i.i, i64 %21, i64 %merged.select.i.i.i.i.i.i.i
  store i64 %merged.select6.i.i.i.i.i.i.i, i64* %__result.sroa.0.032.i.i.i.i.i.i, align 8, !tbaa !42, !sourceFile !3, !mergedLineNum !48
  %inc.i.i.i.i.i.i.i.i = add i32 %__first.sroa.5.034.i.i.i.i.i.i, 1, !sourceFile !3, !mergedLineNum !4
  %cmp.i.i.i.i.i.i.i.i = icmp eq i32 %__first.sroa.5.034.i.i.i.i.i.i, 63, !sourceFile !3, !mergedLineNum !4
  %merged.select.i.i.i.i.i.i.i.i = select i1 %cmp.i.i.i.i.i.i.i.i, i32 0, i32 %inc.i.i.i.i.i.i.i.i
  %merged.select5.idx.i.i.i.i.i.i.i.i = zext i1 %cmp.i.i.i.i.i.i.i.i to i64
  %merged.select5.i.i.i.i.i.i.i.i = getelementptr i64, i64* %__first.sroa.0.033.i.i.i.i.i.i, i64 %merged.select5.idx.i.i.i.i.i.i.i.i
  %inc.i.i16.i.i.i.i.i.i = add i32 %__result.sroa.5.031.i.i.i.i.i.i, 1, !sourceFile !3, !mergedLineNum !4
  %cmp.i.i17.i.i.i.i.i.i = icmp eq i32 %__result.sroa.5.031.i.i.i.i.i.i, 63, !sourceFile !3, !mergedLineNum !4
  %merged.select.i.i18.i.i.i.i.i.i = select i1 %cmp.i.i17.i.i.i.i.i.i, i32 0, i32 %inc.i.i16.i.i.i.i.i.i
  %merged.select5.idx.i.i19.i.i.i.i.i.i = zext i1 %cmp.i.i17.i.i.i.i.i.i to i64
  %merged.select5.i.i20.i.i.i.i.i.i = getelementptr i64, i64* %__result.sroa.0.032.i.i.i.i.i.i, i64 %merged.select5.idx.i.i19.i.i.i.i.i.i
  %dec.i.i.i.i.i.i = add nsw i64 %__n.035.i.i.i.i.i.i, -1, !sourceFile !3, !mergedLineNum !4
  %cmp.i.i.i.i.i14.i = icmp sgt i64 %__n.035.i.i.i.i.i.i, 1
  br i1 %cmp.i.i.i.i.i14.i, label %for.body.i.i.i.i.i.i, label %_ZNSt6vectorIbSaIbEE15_M_copy_alignedESt19_Bit_const_iteratorS2_St13_Bit_iterator.exit, !llvm.loop !51, !sourceFile !3, !mergedLineNum !4

_ZNSt6vectorIbSaIbEE15_M_copy_alignedESt19_Bit_const_iteratorS2_St13_Bit_iterator.exit: ; preds = %for.body.i.i.i.i.i.i, %_ZSt4copyIPmS0_ET0_T_S2_S1_.exit.i
  %__result.sroa.5.0.lcssa.i.i.i.i.i.i = phi i32 [ 0, %_ZSt4copyIPmS0_ET0_T_S2_S1_.exit.i ], [ %merged.select.i.i18.i.i.i.i.i.i, %for.body.i.i.i.i.i.i ]
  %__result.sroa.0.0.lcssa.i.i.i.i.i.i = phi i64* [ %add.ptr.i.i.i.i.i.i, %_ZSt4copyIPmS0_ET0_T_S2_S1_.exit.i ], [ %merged.select5.i.i20.i.i.i.i.i.i, %for.body.i.i.i.i.i.i ]
  %ref.tmp.sroa.0.0..sroa_idx = getelementptr inbounds %"class.std::vector.6", %"class.std::vector.6"* %this, i64 0, i32 0, i32 0, i32 0, i32 1, i32 0, i32 0
  store i64* %__result.sroa.0.0.lcssa.i.i.i.i.i.i, i64** %ref.tmp.sroa.0.0..sroa_idx, align 8, !sourceFile !3, !mergedLineNum !4
  %ref.tmp.sroa.4.0..sroa_idx15 = getelementptr inbounds %"class.std::vector.6", %"class.std::vector.6"* %this, i64 0, i32 0, i32 0, i32 0, i32 1, i32 0, i32 1
  store i32 %__result.sroa.5.0.lcssa.i.i.i.i.i.i, i32* %ref.tmp.sroa.4.0..sroa_idx15, align 8, !sourceFile !3, !mergedLineNum !4
  br label %return, !sourceFile !3, !mergedLineNum !4

return:                                           ; preds = %entry, %_ZNSt6vectorIbSaIbEE15_M_copy_alignedESt19_Bit_const_iteratorS2_St13_Bit_iterator.exit
  ret %"class.std::vector.6"* %this, !sourceFile !3, !mergedLineNum !4
}

; Function Attrs: mustprogress uwtable
define dso_local float @_ZN9FastBoard21percentual_area_scoreEf(%class.FastBoard* nocapture nonnull readonly align 8 dereferenceable(8052) %this, float %komi) local_unnamed_addr #5 align 2 {
entry:
  %call = tail call float @_ZN9FastBoard10area_scoreEf(%class.FastBoard* nonnull align 8 dereferenceable(8052) %this, float %komi), !sourceFile !3, !mergedLineNum !4
  %m_boardsize = getelementptr inbounds %class.FastBoard, %class.FastBoard* %this, i64 0, i32 17, !sourceFile !3, !mergedLineNum !4
  %0 = load i32, i32* %m_boardsize, align 8, !tbaa !5, !sourceFile !3, !mergedLineNum !4
  %mul = mul nsw i32 %0, %0, !sourceFile !3, !mergedLineNum !4
  %conv = sitofp i32 %mul to float, !sourceFile !3, !mergedLineNum !4
  %div = fdiv float %call, %conv, !sourceFile !3, !mergedLineNum !4
  ret float %div, !sourceFile !3, !mergedLineNum !4
}

; Function Attrs: uwtable
define dso_local float @_ZN9FastBoard10area_scoreEf(%class.FastBoard* nocapture nonnull readonly align 8 dereferenceable(8052) %this, float %komi) local_unnamed_addr #4 align 2 personality i8* bitcast (i32 (...)* @__gxx_personality_v0 to i8*) {
entry:
  %white = alloca %"class.std::vector.6", align 8, !sourceFile !3, !mergedLineNum !4
  %black = alloca %"class.std::vector.6", align 8, !sourceFile !3, !mergedLineNum !4
  %0 = bitcast %"class.std::vector.6"* %white to i8*, !sourceFile !3, !mergedLineNum !4
  call void @llvm.lifetime.start.p0i8(i64 40, i8* nonnull %0) #20, !sourceFile !3, !mergedLineNum !4
  call void @_ZN9FastBoard16calc_reach_colorEi(%"class.std::vector.6"* nonnull sret(%"class.std::vector.6") align 8 %white, %class.FastBoard* nonnull align 8 dereferenceable(8052) %this, i32 1), !sourceFile !3, !mergedLineNum !4
  %1 = bitcast %"class.std::vector.6"* %black to i8*, !sourceFile !3, !mergedLineNum !4
  call void @llvm.lifetime.start.p0i8(i64 40, i8* nonnull %1) #20, !sourceFile !3, !mergedLineNum !4
  invoke void @_ZN9FastBoard16calc_reach_colorEi(%"class.std::vector.6"* nonnull sret(%"class.std::vector.6") align 8 %black, %class.FastBoard* nonnull align 8 dereferenceable(8052) %this, i32 0)
          to label %invoke.cont unwind label %lpad, !sourceFile !3, !mergedLineNum !4

invoke.cont:                                      ; preds = %entry
  %fneg = fneg float %komi, !sourceFile !3, !mergedLineNum !4
  %m_boardsize = getelementptr inbounds %class.FastBoard, %class.FastBoard* %this, i64 0, i32 17, !sourceFile !3, !mergedLineNum !4
  %_M_p.i.i85 = getelementptr inbounds %"class.std::vector.6", %"class.std::vector.6"* %white, i64 0, i32 0, i32 0, i32 0, i32 0, i32 0, i32 0
  %_M_p.i.i86 = getelementptr inbounds %"class.std::vector.6", %"class.std::vector.6"* %black, i64 0, i32 0, i32 0, i32 0, i32 0, i32 0, i32 0
  %2 = load i32, i32* %m_boardsize, align 8, !tbaa !5, !sourceFile !3, !mergedLineNum !4
  %cmp188 = icmp sgt i32 %2, 0, !sourceFile !3, !mergedLineNum !4
  br i1 %cmp188, label %for.cond2.preheader, label %for.cond.cleanup, !sourceFile !3, !mergedLineNum !4

for.cond2.preheader:                              ; preds = %invoke.cont, %for.cond.cleanup5
  %3 = phi i32 [ %12, %for.cond.cleanup5 ], [ %2, %invoke.cont ]
  %i.0190 = phi i32 [ %inc39, %for.cond.cleanup5 ], [ 0, %invoke.cont ]
  %score.0189 = phi float [ %score.1.lcssa, %for.cond.cleanup5 ], [ %fneg, %invoke.cont ]
  %cmp4185 = icmp sgt i32 %3, 0, !sourceFile !3, !mergedLineNum !4
  br i1 %cmp4185, label %invoke.cont8, label %for.cond.cleanup5, !sourceFile !3, !mergedLineNum !4

for.cond.cleanup:                                 ; preds = %for.cond.cleanup5, %invoke.cont
  %score.0.lcssa = phi float [ %fneg, %invoke.cont ], [ %score.1.lcssa, %for.cond.cleanup5 ]
  %4 = load i64*, i64** %_M_p.i.i86, align 8, !tbaa !35, !sourceFile !3, !mergedLineNum !4
  %tobool.not.i.i = icmp eq i64* %4, null, !sourceFile !3, !mergedLineNum !4
  br i1 %tobool.not.i.i, label %_ZNSt13_Bvector_baseISaIbEED2Ev.exit, label %if.then.i.i, !sourceFile !3, !mergedLineNum !4

if.then.i.i:                                      ; preds = %for.cond.cleanup
  %_M_end_of_storage.i.i.i = getelementptr inbounds %"class.std::vector.6", %"class.std::vector.6"* %black, i64 0, i32 0, i32 0, i32 0, i32 2
  %5 = load i64*, i64** %_M_end_of_storage.i.i.i, align 8, !tbaa !39
  %sub.ptr.lhs.cast.i.i = ptrtoint i64* %5 to i64, !sourceFile !3, !mergedLineNum !4
  %sub.ptr.rhs.cast.i.i = ptrtoint i64* %4 to i64, !sourceFile !3, !mergedLineNum !4
  %sub.ptr.sub.i.i = sub i64 %sub.ptr.lhs.cast.i.i, %sub.ptr.rhs.cast.i.i, !sourceFile !3, !mergedLineNum !4
  %sub.ptr.div.i.i = ashr exact i64 %sub.ptr.sub.i.i, 3
  %idx.neg.i.i = sub nsw i64 0, %sub.ptr.div.i.i, !sourceFile !3, !mergedLineNum !4
  %add.ptr.i.i = getelementptr inbounds i64, i64* %5, i64 %idx.neg.i.i, !sourceFile !3, !mergedLineNum !4
  %6 = bitcast i64* %add.ptr.i.i to i8*, !sourceFile !3, !mergedLineNum !4
  call void @_ZdlPv(i8* %6) #22, !sourceFile !3, !mergedLineNum !4
  br label %_ZNSt13_Bvector_baseISaIbEED2Ev.exit, !sourceFile !3, !mergedLineNum !4

_ZNSt13_Bvector_baseISaIbEED2Ev.exit:             ; preds = %for.cond.cleanup, %if.then.i.i
  call void @llvm.lifetime.end.p0i8(i64 40, i8* nonnull %1) #20, !sourceFile !3, !mergedLineNum !4
  %7 = load i64*, i64** %_M_p.i.i85, align 8, !tbaa !35, !sourceFile !3, !mergedLineNum !4
  %tobool.not.i.i72 = icmp eq i64* %7, null, !sourceFile !3, !mergedLineNum !4
  br i1 %tobool.not.i.i72, label %_ZNSt13_Bvector_baseISaIbEED2Ev.exit84, label %if.then.i.i83, !sourceFile !3, !mergedLineNum !4

if.then.i.i83:                                    ; preds = %_ZNSt13_Bvector_baseISaIbEED2Ev.exit
  %_M_end_of_storage.i.i.i73 = getelementptr inbounds %"class.std::vector.6", %"class.std::vector.6"* %white, i64 0, i32 0, i32 0, i32 0, i32 2
  %8 = load i64*, i64** %_M_end_of_storage.i.i.i73, align 8, !tbaa !39
  %sub.ptr.lhs.cast.i.i74 = ptrtoint i64* %8 to i64, !sourceFile !3, !mergedLineNum !4
  %sub.ptr.rhs.cast.i.i75 = ptrtoint i64* %7 to i64, !sourceFile !3, !mergedLineNum !4
  %sub.ptr.sub.i.i76 = sub i64 %sub.ptr.lhs.cast.i.i74, %sub.ptr.rhs.cast.i.i75, !sourceFile !3, !mergedLineNum !4
  %sub.ptr.div.i.i77 = ashr exact i64 %sub.ptr.sub.i.i76, 3
  %idx.neg.i.i78 = sub nsw i64 0, %sub.ptr.div.i.i77, !sourceFile !3, !mergedLineNum !4
  %add.ptr.i.i79 = getelementptr inbounds i64, i64* %8, i64 %idx.neg.i.i78, !sourceFile !3, !mergedLineNum !4
  %9 = bitcast i64* %add.ptr.i.i79 to i8*, !sourceFile !3, !mergedLineNum !4
  call void @_ZdlPv(i8* %9) #22, !sourceFile !3, !mergedLineNum !4
  store i64* null, i64** %_M_p.i.i85, align 8
  br label %_ZNSt13_Bvector_baseISaIbEED2Ev.exit84, !sourceFile !3, !mergedLineNum !4

_ZNSt13_Bvector_baseISaIbEED2Ev.exit84:           ; preds = %_ZNSt13_Bvector_baseISaIbEED2Ev.exit, %if.then.i.i83
  call void @llvm.lifetime.end.p0i8(i64 40, i8* nonnull %0) #20, !sourceFile !3, !mergedLineNum !4
  ret float %score.0.lcssa, !sourceFile !3, !mergedLineNum !4

lpad:                                             ; preds = %entry
  %10 = landingpad { i8*, i32 }
          cleanup, !sourceFile !3, !mergedLineNum !4
  call void @llvm.lifetime.end.p0i8(i64 40, i8* nonnull %1) #20, !sourceFile !3, !mergedLineNum !4
  %_M_p.i.i145 = getelementptr inbounds %"class.std::vector.6", %"class.std::vector.6"* %white, i64 0, i32 0, i32 0, i32 0, i32 0, i32 0, i32 0
  %11 = load i64*, i64** %_M_p.i.i145, align 8, !tbaa !35, !sourceFile !3, !mergedLineNum !4
  %tobool.not.i.i146 = icmp eq i64* %11, null, !sourceFile !3, !mergedLineNum !4
  br i1 %tobool.not.i.i146, label %_ZNSt13_Bvector_baseISaIbEED2Ev.exit158, label %if.then.i.i157, !sourceFile !3, !mergedLineNum !4

for.cond.cleanup5:                                ; preds = %if.end35, %for.cond2.preheader
  %12 = phi i32 [ %3, %for.cond2.preheader ], [ %17, %if.end35 ]
  %score.1.lcssa = phi float [ %score.0189, %for.cond2.preheader ], [ %score.2, %if.end35 ]
  %inc39 = add nuw nsw i32 %i.0190, 1, !sourceFile !3, !mergedLineNum !4
  %cmp = icmp slt i32 %inc39, %12, !sourceFile !3, !mergedLineNum !4
  br i1 %cmp, label %for.cond2.preheader, label %for.cond.cleanup, !llvm.loop !52, !sourceFile !3, !mergedLineNum !4

invoke.cont8:                                     ; preds = %for.cond2.preheader, %if.end35
  %j.0187 = phi i32 [ %inc, %if.end35 ], [ 0, %for.cond2.preheader ]
  %score.1186 = phi float [ %score.2, %if.end35 ], [ %score.0189, %for.cond2.preheader ]
  %call = call i32 @_ZN9FastBoard10get_vertexEii(%class.FastBoard* nonnull align 8 dereferenceable(8052) %this, i32 %i.0190, i32 %j.0187), !sourceFile !3, !mergedLineNum !4
  %13 = load i64*, i64** %_M_p.i.i85, align 8, !tbaa !35, !sourceFile !3, !mergedLineNum !4
  %div.i.i.i.i.i183 = sdiv i32 %call, 64
  %div.i.i.i.i.i.sext = sext i32 %div.i.i.i.i.i183 to i64
  %rem.i.i.i.i.i184 = srem i32 %call, 64
  %rem.i.i.i.i.i.sext = sext i32 %rem.i.i.i.i.i184 to i64
  %rem.lobit.i.i.i.i.i = ashr i64 %rem.i.i.i.i.i.sext, 63
  %merged.select.idx.i.i.i.i.i = add nsw i64 %rem.lobit.i.i.i.i.i, %div.i.i.i.i.i.sext
  %merged.select.i.i.i.i.i = getelementptr i64, i64* %13, i64 %merged.select.idx.i.i.i.i.i
  %cmp.i.i.i.i.i = icmp slt i32 %rem.i.i.i.i.i184, 0
  %14 = add nsw i64 %rem.i.i.i.i.i.sext, 64, !sourceFile !3, !mergedLineNum !45
  %moved.sel.i.i.i.i.i = select i1 %cmp.i.i.i.i.i, i64 %14, i64 %rem.i.i.i.i.i.sext
  %shl.i.i.i = shl nuw i64 1, %moved.sel.i.i.i.i.i, !sourceFile !3, !mergedLineNum !4
  %15 = load i64, i64* %merged.select.i.i.i.i.i, align 8, !tbaa !42, !sourceFile !3, !mergedLineNum !4
  %and.i = and i64 %shl.i.i.i, %15, !sourceFile !3, !mergedLineNum !4
  %tobool.i.not = icmp eq i64 %and.i, 0, !sourceFile !3, !mergedLineNum !4
  %.pre = load i64*, i64** %_M_p.i.i86, align 8, !tbaa !35
  %merged.select.i.i.i.i.i106.phi.trans.insert = getelementptr i64, i64* %.pre, i64 %merged.select.idx.i.i.i.i.i
  %.pre193 = load i64, i64* %merged.select.i.i.i.i.i106.phi.trans.insert, align 8, !tbaa !42
  %.pre194 = and i64 %.pre193, %shl.i.i.i
  %tobool.i115.not = icmp eq i64 %.pre194, 0
  br i1 %tobool.i.not, label %invoke.cont20, label %invoke.cont14, !sourceFile !3, !mergedLineNum !4

invoke.cont14:                                    ; preds = %invoke.cont8
  br i1 %tobool.i115.not, label %if.then, label %invoke.cont27, !sourceFile !3, !mergedLineNum !4

if.then:                                          ; preds = %invoke.cont14
  %sub = fadd float %score.1186, -1.000000e+00
  br label %if.end35, !sourceFile !3, !mergedLineNum !4

invoke.cont20:                                    ; preds = %invoke.cont8
  br i1 %tobool.i115.not, label %if.end35, label %invoke.cont27, !sourceFile !3, !mergedLineNum !4

invoke.cont27:                                    ; preds = %invoke.cont14, %invoke.cont20
  %16 = fadd float %score.1186, 1.000000e+00, !sourceFile !3, !mergedLineNum !45
  %moved.sel = select i1 %tobool.i.not, float %16, float %score.1186
  br label %if.end35

if.end35:                                         ; preds = %invoke.cont20, %invoke.cont27, %if.then
  %score.2 = phi float [ %sub, %if.then ], [ %moved.sel, %invoke.cont27 ], [ %score.1186, %invoke.cont20 ], !sourceFile !3, !mergedLineNum !4
  %inc = add nuw nsw i32 %j.0187, 1, !sourceFile !3, !mergedLineNum !4
  %17 = load i32, i32* %m_boardsize, align 8, !tbaa !5, !sourceFile !3, !mergedLineNum !4
  %cmp4 = icmp slt i32 %inc, %17, !sourceFile !3, !mergedLineNum !4
  br i1 %cmp4, label %invoke.cont8, label %for.cond.cleanup5, !llvm.loop !53, !sourceFile !3, !mergedLineNum !4

if.then.i.i157:                                   ; preds = %lpad
  %_M_end_of_storage.i.i.i147 = getelementptr inbounds %"class.std::vector.6", %"class.std::vector.6"* %white, i64 0, i32 0, i32 0, i32 0, i32 2
  %18 = load i64*, i64** %_M_end_of_storage.i.i.i147, align 8, !tbaa !39
  %sub.ptr.lhs.cast.i.i148 = ptrtoint i64* %18 to i64, !sourceFile !3, !mergedLineNum !4
  %sub.ptr.rhs.cast.i.i149 = ptrtoint i64* %11 to i64, !sourceFile !3, !mergedLineNum !4
  %sub.ptr.sub.i.i150 = sub i64 %sub.ptr.lhs.cast.i.i148, %sub.ptr.rhs.cast.i.i149, !sourceFile !3, !mergedLineNum !4
  %sub.ptr.div.i.i151 = ashr exact i64 %sub.ptr.sub.i.i150, 3
  %idx.neg.i.i152 = sub nsw i64 0, %sub.ptr.div.i.i151, !sourceFile !3, !mergedLineNum !4
  %add.ptr.i.i153 = getelementptr inbounds i64, i64* %18, i64 %idx.neg.i.i152, !sourceFile !3, !mergedLineNum !4
  %19 = bitcast i64* %add.ptr.i.i153 to i8*, !sourceFile !3, !mergedLineNum !4
  call void @_ZdlPv(i8* %19) #22, !sourceFile !3, !mergedLineNum !4
  br label %_ZNSt13_Bvector_baseISaIbEED2Ev.exit158, !sourceFile !3, !mergedLineNum !4

_ZNSt13_Bvector_baseISaIbEED2Ev.exit158:          ; preds = %lpad, %if.then.i.i157
  call void @llvm.lifetime.end.p0i8(i64 40, i8* nonnull %0) #20, !sourceFile !3, !mergedLineNum !4
  resume { i8*, i32 } %10, !sourceFile !3, !mergedLineNum !4
}

; Function Attrs: mustprogress nofree norecurse nosync nounwind readonly uwtable willreturn
define dso_local i32 @_ZN9FastBoard17estimate_mc_scoreEf(%class.FastBoard* nocapture nonnull readonly align 8 dereferenceable(8052) %this, float %komi) local_unnamed_addr #0 align 2 {
entry:
  %arrayidx.i = getelementptr inbounds %class.FastBoard, %class.FastBoard* %this, i64 0, i32 15, i32 0, i64 0
  %0 = load i32, i32* %arrayidx.i, align 8, !tbaa !22, !sourceFile !3, !mergedLineNum !4
  %arrayidx.i7 = getelementptr inbounds %class.FastBoard, %class.FastBoard* %this, i64 0, i32 15, i32 0, i64 1
  %1 = load i32, i32* %arrayidx.i7, align 4, !tbaa !22, !sourceFile !3, !mergedLineNum !4
  %conv = fptosi float %komi to i32, !sourceFile !3, !mergedLineNum !4
  %2 = add i32 %0, 1
  %3 = add i32 %1, %conv
  %add = sub i32 %2, %3
  ret i32 %add, !sourceFile !3, !mergedLineNum !4
}

; Function Attrs: mustprogress nounwind uwtable
define dso_local float @_ZN9FastBoard14final_mc_scoreEf(%class.FastBoard* nocapture nonnull readonly align 8 dereferenceable(8052) %this, float %komi) local_unnamed_addr #1 align 2 {
entry:
  %m_empty_cnt = getelementptr inbounds %class.FastBoard, %class.FastBoard* %this, i64 0, i32 2, !sourceFile !3, !mergedLineNum !4
  %0 = load i32, i32* %m_empty_cnt, align 4, !tbaa !21, !sourceFile !3, !mergedLineNum !4
  %arrayidx.i = getelementptr inbounds %class.FastBoard, %class.FastBoard* %this, i64 0, i32 15, i32 0, i64 0
  %1 = load i32, i32* %arrayidx.i, align 8, !tbaa !22, !sourceFile !3, !mergedLineNum !4
  %arrayidx.i46 = getelementptr inbounds %class.FastBoard, %class.FastBoard* %this, i64 0, i32 15, i32 0, i64 1
  %2 = load i32, i32* %arrayidx.i46, align 4, !tbaa !22, !sourceFile !3, !mergedLineNum !4
  %cmp65 = icmp sgt i32 %0, 0, !sourceFile !3, !mergedLineNum !4
  br i1 %cmp65, label %for.body.preheader, label %for.cond.cleanup, !sourceFile !3, !mergedLineNum !4

for.body.preheader:                               ; preds = %entry
  %wide.trip.count = zext i32 %0 to i64
  br label %for.body

for.cond.cleanup:                                 ; preds = %_ZN5boost5arrayItLm441EEixEm.exit58, %entry
  %bsc.0.lcssa = phi i32 [ %1, %entry ], [ %moved.sel, %_ZN5boost5arrayItLm441EEixEm.exit58 ]
  %wsc.0.lcssa = phi i32 [ %2, %entry ], [ %moved.sel45, %_ZN5boost5arrayItLm441EEixEm.exit58 ]
  %conv27 = sitofp i32 %bsc.0.lcssa to float, !sourceFile !3, !mergedLineNum !4
  %conv28 = sitofp i32 %wsc.0.lcssa to float, !sourceFile !3, !mergedLineNum !4
  %add = fadd float %conv28, %komi, !sourceFile !3, !mergedLineNum !4
  %sub = fsub float %conv27, %add, !sourceFile !3, !mergedLineNum !4
  ret float %sub, !sourceFile !3, !mergedLineNum !4

for.body:                                         ; preds = %for.body.preheader, %_ZN5boost5arrayItLm441EEixEm.exit58
  %indvars.iv = phi i64 [ 0, %for.body.preheader ], [ %indvars.iv.next, %_ZN5boost5arrayItLm441EEixEm.exit58 ]
  %wsc.068 = phi i32 [ %2, %for.body.preheader ], [ %moved.sel45, %_ZN5boost5arrayItLm441EEixEm.exit58 ]
  %bsc.067 = phi i32 [ %1, %for.body.preheader ], [ %moved.sel, %_ZN5boost5arrayItLm441EEixEm.exit58 ]
  %exitcond.not = icmp eq i64 %indvars.iv, 441
  br i1 %exitcond.not, label %cond.false.i, label %_ZN5boost5arrayItLm441EEixEm.exit, !sourceFile !3, !mergedLineNum !4

cond.false.i:                                     ; preds = %for.body
  tail call void @__assert_fail(i8* getelementptr inbounds ([24 x i8], [24 x i8]* @.str.61, i64 0, i64 0), i8* getelementptr inbounds ([18 x i8], [18 x i8]* @.str.62, i64 0, i64 0), i32 92, i8* getelementptr inbounds ([125 x i8], [125 x i8]* @__PRETTY_FUNCTION__._ZN5boost5arrayItLm441EEixEm, i64 0, i64 0)) #19, !sourceFile !3, !mergedLineNum !4
  unreachable, !sourceFile !3, !mergedLineNum !4

_ZN5boost5arrayItLm441EEixEm.exit:                ; preds = %for.body
  %arrayidx.i47 = getelementptr inbounds %class.FastBoard, %class.FastBoard* %this, i64 0, i32 0, i32 0, i64 %indvars.iv
  %3 = load i16, i16* %arrayidx.i47, align 2, !tbaa !23, !sourceFile !3, !mergedLineNum !4
  %conv6 = zext i16 %3 to i64
  %cmp.i48 = icmp ult i16 %3, 441
  br i1 %cmp.i48, label %_ZN5boost5arrayIN9FastBoard8square_tELm441EEixEm.exit, label %cond.false.i49, !sourceFile !3, !mergedLineNum !4

cond.false.i49:                                   ; preds = %_ZN5boost5arrayItLm441EEixEm.exit
  tail call void @__assert_fail(i8* getelementptr inbounds ([24 x i8], [24 x i8]* @.str.61, i64 0, i64 0), i8* getelementptr inbounds ([18 x i8], [18 x i8]* @.str.62, i64 0, i64 0), i32 92, i8* getelementptr inbounds ([135 x i8], [135 x i8]* @__PRETTY_FUNCTION__._ZN5boost5arrayIN9FastBoard8square_tELm441EEixEm, i64 0, i64 0)) #19, !sourceFile !3, !mergedLineNum !4
  unreachable, !sourceFile !3, !mergedLineNum !4

_ZN5boost5arrayIN9FastBoard8square_tELm441EEixEm.exit: ; preds = %_ZN5boost5arrayItLm441EEixEm.exit
  %arrayidx.i50 = getelementptr inbounds %class.FastBoard, %class.FastBoard* %this, i64 0, i32 5, i32 0, i64 %conv6
  %4 = load i32, i32* %arrayidx.i50, align 4, !tbaa !18, !sourceFile !3, !mergedLineNum !4
  %cmp8 = icmp eq i32 %4, 2, !sourceFile !3, !mergedLineNum !4
  br i1 %cmp8, label %_ZN5boost5arrayItLm441EEixEm.exit58, label %cond.false, !sourceFile !3, !mergedLineNum !4

cond.false:                                       ; preds = %_ZN5boost5arrayIN9FastBoard8square_tELm441EEixEm.exit
  tail call void @__assert_fail(i8* getelementptr inbounds ([21 x i8], [21 x i8]* @.str.11, i64 0, i64 0), i8* getelementptr inbounds ([14 x i8], [14 x i8]* @.str.1, i64 0, i64 0), i32 366, i8* getelementptr inbounds ([39 x i8], [39 x i8]* @__PRETTY_FUNCTION__._ZN9FastBoard14final_mc_scoreEf, i64 0, i64 0)) #19, !sourceFile !3, !mergedLineNum !4
  unreachable, !sourceFile !3, !mergedLineNum !4

_ZN5boost5arrayItLm441EEixEm.exit58:              ; preds = %_ZN5boost5arrayIN9FastBoard8square_tELm441EEixEm.exit
  %arrayidx.i53 = getelementptr inbounds %class.FastBoard, %class.FastBoard* %this, i64 0, i32 10, i32 0, i64 %conv6
  %5 = load i16, i16* %arrayidx.i53, align 2, !tbaa !23, !sourceFile !3, !mergedLineNum !4
  %6 = and i16 %5, 112
  %cmp20 = icmp eq i16 %6, 64
  %merged.select = select i1 %cmp20, i32 %wsc.068, i32 %bsc.067
  %7 = add nsw i32 %merged.select, 1, !sourceFile !3, !mergedLineNum !54
  %moved.sel45 = select i1 %cmp20, i32 %7, i32 %wsc.068
  %8 = and i16 %5, 7
  %cmp12 = icmp eq i16 %8, 4
  %9 = select i1 %cmp12, i32 %7, i32 %bsc.067
  %moved.sel = select i1 %cmp20, i32 %bsc.067, i32 %9
  %indvars.iv.next = add nuw nsw i64 %indvars.iv, 1
  %exitcond70.not = icmp eq i64 %indvars.iv.next, %wide.trip.count
  br i1 %exitcond70.not, label %for.cond.cleanup, label %for.body, !llvm.loop !55, !sourceFile !3, !mergedLineNum !4
}

; Function Attrs: uwtable
define dso_local void @_ZN9FastBoard11remove_deadEv(%class.FastBoard* noalias nocapture sret(%class.FastBoard) align 8 %agg.result, %class.FastBoard* nocapture nonnull readonly align 8 dereferenceable(8052) %this) local_unnamed_addr #4 align 2 personality i8* bitcast (i32 (...)* @__gxx_personality_v0 to i8*) {
entry:
  %0 = bitcast %class.FastBoard* %agg.result to i8*, !sourceFile !3, !mergedLineNum !4
  %1 = bitcast %class.FastBoard* %this to i8*, !sourceFile !3, !mergedLineNum !4
  tail call void @llvm.memcpy.p0i8.p0i8.i64(i8* noundef nonnull align 8 dereferenceable(8024) %0, i8* noundef nonnull align 8 dereferenceable(8024) %1, i64 8024, i1 false), !sourceFile !3, !mergedLineNum !4
  %m_critical.i = getelementptr inbounds %class.FastBoard, %class.FastBoard* %agg.result, i64 0, i32 16, !sourceFile !3, !mergedLineNum !4
  %_M_finish.i.i.i = getelementptr inbounds %class.FastBoard, %class.FastBoard* %this, i64 0, i32 16, i32 0, i32 0, i32 0, i32 1
  %2 = load i32*, i32** %_M_finish.i.i.i, align 8, !tbaa !56, !sourceFile !3, !mergedLineNum !4
  %_M_start.i.i.i = getelementptr inbounds %class.FastBoard, %class.FastBoard* %this, i64 0, i32 16, i32 0, i32 0, i32 0, i32 0
  %3 = load i32*, i32** %_M_start.i.i.i, align 8, !tbaa !58, !sourceFile !3, !mergedLineNum !4
  %sub.ptr.lhs.cast.i.i.i = ptrtoint i32* %2 to i64, !sourceFile !3, !mergedLineNum !4
  %sub.ptr.rhs.cast.i.i.i = ptrtoint i32* %3 to i64, !sourceFile !3, !mergedLineNum !4
  %sub.ptr.sub.i.i.i = sub i64 %sub.ptr.lhs.cast.i.i.i, %sub.ptr.rhs.cast.i.i.i, !sourceFile !3, !mergedLineNum !4
  %sub.ptr.div.i.i.i = ashr exact i64 %sub.ptr.sub.i.i.i, 2
  %4 = bitcast %"class.std::vector"* %m_critical.i to i8*
  tail call void @llvm.memset.p0i8.i64(i8* noundef nonnull align 8 dereferenceable(24) %4, i8 0, i64 24, i1 false) #20
  %cmp.not.i.i.i.i.i = icmp eq i64 %sub.ptr.sub.i.i.i, 0
  br i1 %cmp.not.i.i.i.i.i, label %invoke.cont.i.i, label %cond.true.i.i.i.i.i, !sourceFile !3, !mergedLineNum !4

cond.true.i.i.i.i.i:                              ; preds = %entry
  %cmp.i.i.i.i.i.i.i = icmp ugt i64 %sub.ptr.div.i.i.i, 2305843009213693951, !sourceFile !3, !mergedLineNum !4
  br i1 %cmp.i.i.i.i.i.i.i, label %if.then3.i.i.i.i.i.i.i, label %_ZNSt16allocator_traitsISaIiEE8allocateERS0_m.exit.i.i.i.i.i, !prof !59, !sourceFile !3, !mergedLineNum !4

if.then3.i.i.i.i.i.i.i:                           ; preds = %cond.true.i.i.i.i.i
  tail call void @_ZSt28__throw_bad_array_new_lengthv() #23
  unreachable, !sourceFile !3, !mergedLineNum !4

_ZNSt16allocator_traitsISaIiEE8allocateERS0_m.exit.i.i.i.i.i: ; preds = %cond.true.i.i.i.i.i
  %call5.i.i.i.i4.i20.i.i = tail call noalias nonnull i8* @_Znwm(i64 %sub.ptr.sub.i.i.i) #21
  %5 = bitcast i8* %call5.i.i.i.i4.i20.i.i to i32*, !sourceFile !3, !mergedLineNum !4
  br label %invoke.cont.i.i, !sourceFile !3, !mergedLineNum !4

invoke.cont.i.i:                                  ; preds = %_ZNSt16allocator_traitsISaIiEE8allocateERS0_m.exit.i.i.i.i.i, %entry
  %6 = phi i32* [ %5, %_ZNSt16allocator_traitsISaIiEE8allocateERS0_m.exit.i.i.i.i.i ], [ null, %entry ]
  %_M_start.i.i.i.i = getelementptr inbounds %"class.std::vector", %"class.std::vector"* %m_critical.i, i64 0, i32 0, i32 0, i32 0, i32 0
  store i32* %6, i32** %_M_start.i.i.i.i, align 8, !tbaa !58, !sourceFile !3, !mergedLineNum !4
  %_M_finish.i.i.i.i = getelementptr inbounds %class.FastBoard, %class.FastBoard* %agg.result, i64 0, i32 16, i32 0, i32 0, i32 0, i32 1
  store i32* %6, i32** %_M_finish.i.i.i.i, align 8, !tbaa !56, !sourceFile !3, !mergedLineNum !4
  %add.ptr.i.i.i.i = getelementptr inbounds i32, i32* %6, i64 %sub.ptr.div.i.i.i, !sourceFile !3, !mergedLineNum !4
  %_M_end_of_storage.i.i.i.i = getelementptr inbounds %class.FastBoard, %class.FastBoard* %agg.result, i64 0, i32 16, i32 0, i32 0, i32 0, i32 2
  store i32* %add.ptr.i.i.i.i, i32** %_M_end_of_storage.i.i.i.i, align 8, !tbaa !60, !sourceFile !3, !mergedLineNum !4
  %cmp.i.i.i.i.i.i.i.i.i.i = icmp sgt i64 %sub.ptr.sub.i.i.i, 4
  br i1 %cmp.i.i.i.i.i.i.i.i.i.i, label %if.then.i.i.i.i.i.i.i.i.i.i, label %if.else.i.i.i.i.i.i.i.i.i.i, !prof !50, !sourceFile !3, !mergedLineNum !4

if.then.i.i.i.i.i.i.i.i.i.i:                      ; preds = %invoke.cont.i.i
  %7 = bitcast i32* %6 to i8*, !sourceFile !3, !mergedLineNum !4
  %8 = bitcast i32* %3 to i8*, !sourceFile !3, !mergedLineNum !4
  tail call void @llvm.memmove.p0i8.p0i8.i64(i8* align 4 %7, i8* align 4 %8, i64 %sub.ptr.sub.i.i.i, i1 false), !sourceFile !3, !mergedLineNum !4
  br label %_ZN9FastBoardC2ERKS_.exit, !sourceFile !3, !mergedLineNum !4

if.else.i.i.i.i.i.i.i.i.i.i:                      ; preds = %invoke.cont.i.i
  %cmp1.i.i.i.i.i.i.i.i.i.i = icmp eq i64 %sub.ptr.sub.i.i.i, 4
  br i1 %cmp1.i.i.i.i.i.i.i.i.i.i, label %if.then2.i.i.i.i.i.i.i.i.i.i, label %_ZN9FastBoardC2ERKS_.exit, !sourceFile !3, !mergedLineNum !4

if.then2.i.i.i.i.i.i.i.i.i.i:                     ; preds = %if.else.i.i.i.i.i.i.i.i.i.i
  %9 = load i32, i32* %3, align 4, !tbaa !22, !sourceFile !3, !mergedLineNum !4
  store i32 %9, i32* %6, align 4, !tbaa !22, !sourceFile !3, !mergedLineNum !4
  br label %_ZN9FastBoardC2ERKS_.exit, !sourceFile !3, !mergedLineNum !4

_ZN9FastBoardC2ERKS_.exit:                        ; preds = %if.then.i.i.i.i.i.i.i.i.i.i, %if.else.i.i.i.i.i.i.i.i.i.i, %if.then2.i.i.i.i.i.i.i.i.i.i
  store i32* %add.ptr.i.i.i.i, i32** %_M_finish.i.i.i.i, align 8, !tbaa !56, !sourceFile !3, !mergedLineNum !4
  %m_boardsize.i = getelementptr inbounds %class.FastBoard, %class.FastBoard* %agg.result, i64 0, i32 17, !sourceFile !3, !mergedLineNum !4
  %m_boardsize4.i = getelementptr inbounds %class.FastBoard, %class.FastBoard* %this, i64 0, i32 17, !sourceFile !3, !mergedLineNum !4
  %10 = load i32, i32* %m_boardsize4.i, align 8, !tbaa !5
  store i32 %10, i32* %m_boardsize.i, align 8, !tbaa !5, !sourceFile !3, !mergedLineNum !4
  %m_maxsq.i54 = getelementptr inbounds %class.FastBoard, %class.FastBoard* %agg.result, i64 0, i32 4
  %11 = load i32, i32* %m_maxsq.i54, align 4
  %cmp63 = icmp sgt i32 %10, 0, !sourceFile !3, !mergedLineNum !4
  br i1 %cmp63, label %for.cond2.preheader, label %nrvo.skipdtor, !sourceFile !3, !mergedLineNum !4

for.cond2.preheader:                              ; preds = %_ZN9FastBoardC2ERKS_.exit, %for.cond.cleanup5
  %12 = phi i32 [ %13, %for.cond.cleanup5 ], [ %10, %_ZN9FastBoardC2ERKS_.exit ]
  %i.064 = phi i32 [ %inc26, %for.cond.cleanup5 ], [ 0, %_ZN9FastBoardC2ERKS_.exit ]
  %cmp461 = icmp sgt i32 %12, 0, !sourceFile !3, !mergedLineNum !4
  br i1 %cmp461, label %for.body6, label %for.cond.cleanup5, !sourceFile !3, !mergedLineNum !4

for.cond.cleanup5:                                ; preds = %if.end24, %for.cond2.preheader
  %13 = phi i32 [ %12, %for.cond2.preheader ], [ %17, %if.end24 ]
  %inc26 = add nuw nsw i32 %i.064, 1, !sourceFile !3, !mergedLineNum !4
  %cmp = icmp slt i32 %inc26, %13, !sourceFile !3, !mergedLineNum !4
  br i1 %cmp, label %for.cond2.preheader, label %nrvo.skipdtor, !llvm.loop !61, !sourceFile !3, !mergedLineNum !4

for.body6:                                        ; preds = %for.cond2.preheader, %if.end24
  %j.062 = phi i32 [ %inc, %if.end24 ], [ 0, %for.cond2.preheader ]
  %call = tail call i32 @_ZN9FastBoard10get_vertexEii(%class.FastBoard* nonnull align 8 dereferenceable(8052) %this, i32 %i.064, i32 %j.062), !sourceFile !3, !mergedLineNum !4
  %call7 = invoke %class.MCOwnerTable* @_ZN12MCOwnerTable7get_MCOEv()
          to label %invoke.cont unwind label %lpad, !sourceFile !3, !mergedLineNum !4

invoke.cont:                                      ; preds = %for.body6
  %call9 = invoke float @_ZN12MCOwnerTable9get_scoreEii(%class.MCOwnerTable* nonnull align 8 dereferenceable(40) %call7, i32 0, i32 %call)
          to label %invoke.cont8 unwind label %lpad, !sourceFile !3, !mergedLineNum !4

invoke.cont8:                                     ; preds = %invoke.cont
  %cmp.i = icmp ult i32 %call, 441
  br i1 %cmp.i, label %_ZN5boost5arrayIN9FastBoard8square_tELm441EEixEm.exit, label %cond.false.i, !sourceFile !3, !mergedLineNum !4

cond.false.i:                                     ; preds = %invoke.cont8
  tail call void @__assert_fail(i8* getelementptr inbounds ([24 x i8], [24 x i8]* @.str.61, i64 0, i64 0), i8* getelementptr inbounds ([18 x i8], [18 x i8]* @.str.62, i64 0, i64 0), i32 92, i8* getelementptr inbounds ([135 x i8], [135 x i8]* @__PRETTY_FUNCTION__._ZN5boost5arrayIN9FastBoard8square_tELm441EEixEm, i64 0, i64 0)) #19, !sourceFile !3, !mergedLineNum !4
  unreachable, !sourceFile !3, !mergedLineNum !4

_ZN5boost5arrayIN9FastBoard8square_tELm441EEixEm.exit: ; preds = %invoke.cont8
  %conv66 = zext i32 %call to i64
  %arrayidx.i = getelementptr inbounds %class.FastBoard, %class.FastBoard* %this, i64 0, i32 5, i32 0, i64 %conv66
  %14 = load i32, i32* %arrayidx.i, align 4, !tbaa !18, !sourceFile !3, !mergedLineNum !4
  %cmp12 = icmp eq i32 %14, 0, !sourceFile !3, !mergedLineNum !4
  %cmp13 = fcmp olt float %call9, 0x3FC99999A0000000, !sourceFile !3, !mergedLineNum !4
  %or.cond = select i1 %cmp12, i1 %cmp13, i1 false, !sourceFile !3, !mergedLineNum !4
  br i1 %or.cond, label %land.rhs4.i, label %_ZN5boost5arrayIN9FastBoard8square_tELm441EEixEm.exit52, !sourceFile !3, !mergedLineNum !4

land.rhs4.i:                                      ; preds = %_ZN5boost5arrayIN9FastBoard8square_tELm441EEixEm.exit
  %cmp5.i = icmp sgt i32 %11, %call, !sourceFile !3, !mergedLineNum !4
  br i1 %cmp5.i, label %if.end24.sink.split, label %cond.false8.i, !sourceFile !3, !mergedLineNum !4

cond.false8.i:                                    ; preds = %land.rhs4.i
  tail call void @__assert_fail(i8* getelementptr inbounds ([32 x i8], [32 x i8]* @.str.5, i64 0, i64 0), i8* getelementptr inbounds ([14 x i8], [14 x i8]* @.str.1, i64 0, i64 0), i32 53, i8* getelementptr inbounds ([53 x i8], [53 x i8]* @__PRETTY_FUNCTION__._ZN9FastBoard10set_squareEiNS_8square_tE, i64 0, i64 0)) #19, !sourceFile !3, !mergedLineNum !4
  unreachable, !sourceFile !3, !mergedLineNum !4

lpad:                                             ; preds = %invoke.cont, %for.body6
  %15 = landingpad { i8*, i32 }
          cleanup, !sourceFile !3, !mergedLineNum !4
  %tobool.not.i.i.i.i = icmp eq i32* %6, null, !sourceFile !3, !mergedLineNum !4
  br i1 %tobool.not.i.i.i.i, label %_ZN9FastBoardD2Ev.exit, label %if.then.i.i.i.i, !sourceFile !3, !mergedLineNum !4

if.then.i.i.i.i:                                  ; preds = %lpad
  %16 = bitcast i32* %6 to i8*, !sourceFile !3, !mergedLineNum !4
  tail call void @_ZdlPv(i8* %16) #22, !sourceFile !3, !mergedLineNum !4
  br label %_ZN9FastBoardD2Ev.exit, !sourceFile !3, !mergedLineNum !4

_ZN9FastBoardD2Ev.exit:                           ; preds = %lpad, %if.then.i.i.i.i
  resume { i8*, i32 } %15, !sourceFile !3, !mergedLineNum !4

_ZN5boost5arrayIN9FastBoard8square_tELm441EEixEm.exit52: ; preds = %_ZN5boost5arrayIN9FastBoard8square_tELm441EEixEm.exit
  %cmp19 = icmp eq i32 %14, 1, !sourceFile !3, !mergedLineNum !4
  %cmp21 = fcmp ogt float %call9, 0x3FE99999A0000000, !sourceFile !3, !mergedLineNum !4
  %or.cond29 = select i1 %cmp19, i1 %cmp21, i1 false, !sourceFile !3, !mergedLineNum !4
  br i1 %or.cond29, label %land.rhs4.i56, label %if.end24, !sourceFile !3, !mergedLineNum !4

land.rhs4.i56:                                    ; preds = %_ZN5boost5arrayIN9FastBoard8square_tELm441EEixEm.exit52
  %cmp5.i55 = icmp sgt i32 %11, %call, !sourceFile !3, !mergedLineNum !4
  br i1 %cmp5.i55, label %if.end24.sink.split, label %cond.false8.i57, !sourceFile !3, !mergedLineNum !4

cond.false8.i57:                                  ; preds = %land.rhs4.i56
  tail call void @__assert_fail(i8* getelementptr inbounds ([32 x i8], [32 x i8]* @.str.5, i64 0, i64 0), i8* getelementptr inbounds ([14 x i8], [14 x i8]* @.str.1, i64 0, i64 0), i32 53, i8* getelementptr inbounds ([53 x i8], [53 x i8]* @__PRETTY_FUNCTION__._ZN9FastBoard10set_squareEiNS_8square_tE, i64 0, i64 0)) #19, !sourceFile !3, !mergedLineNum !4
  unreachable, !sourceFile !3, !mergedLineNum !4

if.end24.sink.split:                              ; preds = %land.rhs4.i56, %land.rhs4.i
  %conv23.i58 = zext i32 %call to i64
  %arrayidx.i.i59 = getelementptr inbounds %class.FastBoard, %class.FastBoard* %agg.result, i64 0, i32 5, i32 0, i64 %conv23.i58
  store i32 2, i32* %arrayidx.i.i59, align 4, !tbaa !18
  br label %if.end24

if.end24:                                         ; preds = %if.end24.sink.split, %_ZN5boost5arrayIN9FastBoard8square_tELm441EEixEm.exit52
  %inc = add nuw nsw i32 %j.062, 1, !sourceFile !3, !mergedLineNum !4
  %17 = load i32, i32* %m_boardsize4.i, align 8, !tbaa !5, !sourceFile !3, !mergedLineNum !4
  %cmp4 = icmp slt i32 %inc, %17, !sourceFile !3, !mergedLineNum !4
  br i1 %cmp4, label %for.body6, label %for.cond.cleanup5, !llvm.loop !62, !sourceFile !3, !mergedLineNum !4

nrvo.skipdtor:                                    ; preds = %for.cond.cleanup5, %_ZN9FastBoardC2ERKS_.exit
  ret void, !sourceFile !3, !mergedLineNum !4
}

declare dso_local %class.MCOwnerTable* @_ZN12MCOwnerTable7get_MCOEv() local_unnamed_addr #6

declare dso_local float @_ZN12MCOwnerTable9get_scoreEii(%class.MCOwnerTable* nonnull align 8 dereferenceable(40), i32, i32) local_unnamed_addr #6

; Function Attrs: uwtable
define dso_local void @_ZN9FastBoard9influenceEv(%"class.std::vector"* noalias sret(%"class.std::vector") align 8 %agg.result, %class.FastBoard* nocapture nonnull readonly align 8 dereferenceable(8052) %this) local_unnamed_addr #4 align 2 personality i8* bitcast (i32 (...)* @__gxx_personality_v0 to i8*) {
entry:
  %ref.tmp = alloca %class.FastBoard, align 8, !sourceFile !3, !mergedLineNum !4
  %0 = bitcast %class.FastBoard* %ref.tmp to i8*, !sourceFile !3, !mergedLineNum !4
  call void @llvm.lifetime.start.p0i8(i64 8056, i8* nonnull %0) #20, !sourceFile !3, !mergedLineNum !4
  call void @_ZN9FastBoard11remove_deadEv(%class.FastBoard* nonnull sret(%class.FastBoard) align 8 %ref.tmp, %class.FastBoard* nonnull align 8 dereferenceable(8052) %this), !sourceFile !3, !mergedLineNum !4
  invoke void @_ZN9FastBoard9run_bouzyEii(%"class.std::vector"* sret(%"class.std::vector") align 8 %agg.result, %class.FastBoard* nonnull align 8 dereferenceable(8052) %ref.tmp, i32 5, i32 21)
          to label %invoke.cont unwind label %lpad, !sourceFile !3, !mergedLineNum !4

invoke.cont:                                      ; preds = %entry
  %_M_start.i.i.i = getelementptr inbounds %class.FastBoard, %class.FastBoard* %ref.tmp, i64 0, i32 16, i32 0, i32 0, i32 0, i32 0
  %1 = load i32*, i32** %_M_start.i.i.i, align 8, !tbaa !58, !sourceFile !3, !mergedLineNum !4
  %tobool.not.i.i.i.i = icmp eq i32* %1, null, !sourceFile !3, !mergedLineNum !4
  br i1 %tobool.not.i.i.i.i, label %_ZN9FastBoardD2Ev.exit, label %if.then.i.i.i.i, !sourceFile !3, !mergedLineNum !4

if.then.i.i.i.i:                                  ; preds = %invoke.cont
  %2 = bitcast i32* %1 to i8*, !sourceFile !3, !mergedLineNum !4
  tail call void @_ZdlPv(i8* %2) #22, !sourceFile !3, !mergedLineNum !4
  br label %_ZN9FastBoardD2Ev.exit, !sourceFile !3, !mergedLineNum !4

_ZN9FastBoardD2Ev.exit:                           ; preds = %invoke.cont, %if.then.i.i.i.i
  call void @llvm.lifetime.end.p0i8(i64 8056, i8* nonnull %0) #20, !sourceFile !3, !mergedLineNum !4
  ret void, !sourceFile !3, !mergedLineNum !4

lpad:                                             ; preds = %entry
  %3 = landingpad { i8*, i32 }
          cleanup, !sourceFile !3, !mergedLineNum !4
  %_M_start.i.i.i3 = getelementptr inbounds %class.FastBoard, %class.FastBoard* %ref.tmp, i64 0, i32 16, i32 0, i32 0, i32 0, i32 0
  %4 = load i32*, i32** %_M_start.i.i.i3, align 8, !tbaa !58, !sourceFile !3, !mergedLineNum !4
  %tobool.not.i.i.i.i4 = icmp eq i32* %4, null, !sourceFile !3, !mergedLineNum !4
  br i1 %tobool.not.i.i.i.i4, label %_ZN9FastBoardD2Ev.exit6, label %if.then.i.i.i.i5, !sourceFile !3, !mergedLineNum !4

if.then.i.i.i.i5:                                 ; preds = %lpad
  %5 = bitcast i32* %4 to i8*, !sourceFile !3, !mergedLineNum !4
  tail call void @_ZdlPv(i8* %5) #22, !sourceFile !3, !mergedLineNum !4
  br label %_ZN9FastBoardD2Ev.exit6, !sourceFile !3, !mergedLineNum !4

_ZN9FastBoardD2Ev.exit6:                          ; preds = %lpad, %if.then.i.i.i.i5
  call void @llvm.lifetime.end.p0i8(i64 8056, i8* nonnull %0) #20, !sourceFile !3, !mergedLineNum !4
  resume { i8*, i32 } %3, !sourceFile !3, !mergedLineNum !4
}

; Function Attrs: uwtable
define dso_local void @_ZN9FastBoard9run_bouzyEii(%"class.std::vector"* noalias sret(%"class.std::vector") align 8 %agg.result, %class.FastBoard* nocapture nonnull readonly align 8 dereferenceable(8052) %this, i32 %dilat, i32 %eros) local_unnamed_addr #4 align 2 personality i8* bitcast (i32 (...)* @__gxx_personality_v0 to i8*) {
entry:
  %tmp = alloca %"class.std::vector", align 16, !sourceFile !3, !mergedLineNum !4
  %0 = bitcast %"class.std::vector"* %tmp to i8*, !sourceFile !3, !mergedLineNum !4
  call void @llvm.lifetime.start.p0i8(i64 24, i8* nonnull %0) #20, !sourceFile !3, !mergedLineNum !4
  %m_maxsq = getelementptr inbounds %class.FastBoard, %class.FastBoard* %this, i64 0, i32 4, !sourceFile !3, !mergedLineNum !4
  %1 = load i32, i32* %m_maxsq, align 4, !tbaa !17, !sourceFile !3, !mergedLineNum !4
  %conv = sext i32 %1 to i64, !sourceFile !3, !mergedLineNum !4
  %cmp.i.i = icmp slt i32 %1, 0
  br i1 %cmp.i.i, label %if.then.i.i, label %_ZNSt6vectorIiSaIiEE17_S_check_init_lenEmRKS0_.exit.i, !sourceFile !3, !mergedLineNum !4

if.then.i.i:                                      ; preds = %entry
  tail call void @_ZSt20__throw_length_errorPKc(i8* getelementptr inbounds ([49 x i8], [49 x i8]* @.str.63, i64 0, i64 0)) #23
  unreachable, !sourceFile !3, !mergedLineNum !4

_ZNSt6vectorIiSaIiEE17_S_check_init_lenEmRKS0_.exit.i: ; preds = %entry
  call void @llvm.memset.p0i8.i64(i8* noundef nonnull align 16 dereferenceable(24) %0, i8 0, i64 24, i1 false) #20
  %cmp.not.i.i.i.i = icmp eq i32 %1, 0
  br i1 %cmp.not.i.i.i.i, label %invoke.cont6, label %_ZNSt16allocator_traitsISaIiEE8allocateERS0_m.exit.i.i.i.i, !sourceFile !3, !mergedLineNum !4

_ZNSt16allocator_traitsISaIiEE8allocateERS0_m.exit.i.i.i.i: ; preds = %_ZNSt6vectorIiSaIiEE17_S_check_init_lenEmRKS0_.exit.i
  %mul.i.i.i.i.i.i = shl nuw nsw i64 %conv, 2
  %call5.i.i.i.i4.i.i352 = tail call noalias nonnull i8* @_Znwm(i64 %mul.i.i.i.i.i.i) #21
  %2 = bitcast i8* %call5.i.i.i.i4.i.i352 to i32*, !sourceFile !3, !mergedLineNum !4
  %3 = bitcast %"class.std::vector"* %tmp to i8**
  store i8* %call5.i.i.i.i4.i.i352, i8** %3, align 16, !tbaa !58
  %add.ptr.i.i.i = getelementptr inbounds i32, i32* %2, i64 %conv
  %_M_end_of_storage.i.i.i = getelementptr inbounds %"class.std::vector", %"class.std::vector"* %tmp, i64 0, i32 0, i32 0, i32 0, i32 2
  store i32* %add.ptr.i.i.i, i32** %_M_end_of_storage.i.i.i, align 16, !tbaa !60, !sourceFile !3, !mergedLineNum !4
  store i32 0, i32* %2, align 4, !tbaa !22, !sourceFile !3, !mergedLineNum !4
  %incdec.ptr.i.i.i.i.i = getelementptr inbounds i32, i32* %2, i64 1, !sourceFile !3, !mergedLineNum !4
  %cmp.i.i.i.i.i.i.i = icmp eq i32 %1, 1
  br i1 %cmp.i.i.i.i.i.i.i, label %_ZNSt16allocator_traitsISaIiEE8allocateERS0_m.exit.i.i.i.i358, label %if.end.i.i.i.i.i.i.i, !sourceFile !3, !mergedLineNum !4

if.end.i.i.i.i.i.i.i:                             ; preds = %_ZNSt16allocator_traitsISaIiEE8allocateERS0_m.exit.i.i.i.i
  %incdec.ptr8.i.i.i.i.i = bitcast i32* %incdec.ptr.i.i.i.i.i to i8*
  %4 = add nsw i64 %mul.i.i.i.i.i.i, -4
  tail call void @llvm.memset.p0i8.i64(i8* nonnull align 4 %incdec.ptr8.i.i.i.i.i, i8 0, i64 %4, i1 false)
  br label %_ZNSt16allocator_traitsISaIiEE8allocateERS0_m.exit.i.i.i.i358

_ZNSt16allocator_traitsISaIiEE8allocateERS0_m.exit.i.i.i.i358: ; preds = %_ZNSt16allocator_traitsISaIiEE8allocateERS0_m.exit.i.i.i.i, %if.end.i.i.i.i.i.i.i
  %__first.addr.0.i.i.i.i.i.ph = phi i32* [ %add.ptr.i.i.i, %if.end.i.i.i.i.i.i.i ], [ %incdec.ptr.i.i.i.i.i, %_ZNSt16allocator_traitsISaIiEE8allocateERS0_m.exit.i.i.i.i ]
  %_M_finish.i.i.i492 = getelementptr inbounds %"class.std::vector", %"class.std::vector"* %tmp, i64 0, i32 0, i32 0, i32 0, i32 1
  store i32* %__first.addr.0.i.i.i.i.i.ph, i32** %_M_finish.i.i.i492, align 8, !tbaa !56, !sourceFile !3, !mergedLineNum !4
  %5 = bitcast %"class.std::vector"* %agg.result to i8*
  tail call void @llvm.memset.p0i8.i64(i8* noundef nonnull align 8 dereferenceable(24) %5, i8 0, i64 24, i1 false) #20
  %call5.i.i.i.i4.i.i373 = invoke noalias nonnull i8* @_Znwm(i64 %mul.i.i.i.i.i.i) #21
          to label %if.then.i.i.i.i.i366 unwind label %lpad5

if.then.i.i.i.i.i366:                             ; preds = %_ZNSt16allocator_traitsISaIiEE8allocateERS0_m.exit.i.i.i.i358
  %6 = bitcast i8* %call5.i.i.i.i4.i.i373 to i32*, !sourceFile !3, !mergedLineNum !4
  %7 = bitcast %"class.std::vector"* %agg.result to i8**
  store i8* %call5.i.i.i.i4.i.i373, i8** %7, align 8, !tbaa !58
  %add.ptr.i.i.i361 = getelementptr inbounds i32, i32* %6, i64 %conv
  %_M_end_of_storage.i.i.i362 = getelementptr inbounds %"class.std::vector", %"class.std::vector"* %agg.result, i64 0, i32 0, i32 0, i32 0, i32 2
  store i32* %add.ptr.i.i.i361, i32** %_M_end_of_storage.i.i.i362, align 8, !tbaa !60, !sourceFile !3, !mergedLineNum !4
  store i32 0, i32* %6, align 4, !tbaa !22, !sourceFile !3, !mergedLineNum !4
  %incdec.ptr.i.i.i.i.i364 = getelementptr inbounds i32, i32* %6, i64 1, !sourceFile !3, !mergedLineNum !4
  br i1 %cmp.i.i.i.i.i.i.i, label %for.body.preheader, label %if.end.i.i.i.i.i.i.i368, !sourceFile !3, !mergedLineNum !4

if.end.i.i.i.i.i.i.i368:                          ; preds = %if.then.i.i.i.i.i366
  %incdec.ptr8.i.i.i.i.i367 = bitcast i32* %incdec.ptr.i.i.i.i.i364 to i8*
  %8 = add nsw i64 %mul.i.i.i.i.i.i, -4
  tail call void @llvm.memset.p0i8.i64(i8* nonnull align 4 %incdec.ptr8.i.i.i.i.i367, i8 0, i64 %8, i1 false)
  br label %for.body.preheader

invoke.cont6:                                     ; preds = %_ZNSt6vectorIiSaIiEE17_S_check_init_lenEmRKS0_.exit.i
  %add.ptr.i.i.i485 = getelementptr inbounds i32, i32* null, i64 %conv
  %_M_end_of_storage.i.i.i486 = getelementptr inbounds %"class.std::vector", %"class.std::vector"* %tmp, i64 0, i32 0, i32 0, i32 0, i32 2
  store i32* %add.ptr.i.i.i485, i32** %_M_end_of_storage.i.i.i486, align 16, !tbaa !60, !sourceFile !3, !mergedLineNum !4
  %9 = bitcast %"class.std::vector"* %tmp to <2 x i32*>*
  store <2 x i32*> zeroinitializer, <2 x i32*>* %9, align 16, !tbaa !63
  %_M_end_of_storage.i.i.i362499 = getelementptr inbounds %"class.std::vector", %"class.std::vector"* %agg.result, i64 0, i32 0, i32 0, i32 0, i32 2
  %10 = bitcast %"class.std::vector"* %agg.result to i64*
  store i64 0, i64* %10, align 8
  store i32* %add.ptr.i.i.i485, i32** %_M_end_of_storage.i.i.i362499, align 8, !tbaa !60, !sourceFile !3, !mergedLineNum !4
  %_M_finish.i.i.i370 = getelementptr inbounds %"class.std::vector", %"class.std::vector"* %agg.result, i64 0, i32 0, i32 0, i32 0, i32 1
  store i32* null, i32** %_M_finish.i.i.i370, align 8, !tbaa !56, !sourceFile !3, !mergedLineNum !4
  br label %for.end

for.body.preheader:                               ; preds = %if.end.i.i.i.i.i.i.i368, %if.then.i.i.i.i.i366
  %__first.addr.0.i.i.i.i.i369.ph = phi i32* [ %add.ptr.i.i.i361, %if.end.i.i.i.i.i.i.i368 ], [ %incdec.ptr.i.i.i.i.i364, %if.then.i.i.i.i.i366 ]
  %_M_finish.i.i.i370571 = getelementptr inbounds %"class.std::vector", %"class.std::vector"* %agg.result, i64 0, i32 0, i32 0, i32 0, i32 1
  store i32* %__first.addr.0.i.i.i.i.i369.ph, i32** %_M_finish.i.i.i370571, align 8, !tbaa !56, !sourceFile !3, !mergedLineNum !4
  %wide.trip.count = zext i32 %1 to i64
  %11 = add nsw i64 %wide.trip.count, -1
  %umin = call i64 @llvm.umin.i64(i64 %11, i64 441)
  %12 = add nuw nsw i64 %umin, 1
  %min.iters.check = icmp ult i64 %umin, 4
  br i1 %min.iters.check, label %for.body.preheader594, label %vector.ph

vector.ph:                                        ; preds = %for.body.preheader
  %n.mod.vf = and i64 %12, 3
  %13 = icmp eq i64 %n.mod.vf, 0
  %14 = select i1 %13, i64 4, i64 %n.mod.vf
